   1              		.cpu arm7tdmi
   2              		.arch armv4t
   3              		.fpu softvfp
   4              		.eabi_attribute 20, 1
   5              		.eabi_attribute 21, 1
   6              		.eabi_attribute 23, 3
   7              		.eabi_attribute 24, 1
   8              		.eabi_attribute 25, 1
   9              		.eabi_attribute 26, 1
  10              		.eabi_attribute 30, 6
  11              		.eabi_attribute 34, 0
  12              		.eabi_attribute 18, 4
  13              		.file	"main.c"
  14              		.text
  15              	.Ltext0:
  16              		.cfi_sections	.debug_frame
  17              		.file 1 "main.c"
  18              		.section	.text.byte_fifo_put_possible,"ax",%progbits
  19              		.align	2
  20              		.syntax unified
  21              		.arm
  23              	byte_fifo_put_possible:
  24              	.LFB5:
  25              		.file 2 "trace32/../lib/byte_fifo.h"
   1:trace32/../lib/byte_fifo.h **** /* Byte FIFO queue implementation.
   2:trace32/../lib/byte_fifo.h ****  *
   3:trace32/../lib/byte_fifo.h ****  * Implements a simple reader/write save byte FIFO on top of a data buffer, that lets
   4:trace32/../lib/byte_fifo.h ****  * you enqueue and dequeue single bytes.
   5:trace32/../lib/byte_fifo.h ****  */
   6:trace32/../lib/byte_fifo.h **** 
   7:trace32/../lib/byte_fifo.h **** #ifndef __BYTE_FIFO_H__
   8:trace32/../lib/byte_fifo.h **** #define __BYTE_FIFO_H__
   9:trace32/../lib/byte_fifo.h **** 
  10:trace32/../lib/byte_fifo.h **** 
  11:trace32/../lib/byte_fifo.h **** typedef struct
  12:trace32/../lib/byte_fifo.h **** {
  13:trace32/../lib/byte_fifo.h **** 	unsigned short rd;
  14:trace32/../lib/byte_fifo.h **** 	unsigned short wr;
  15:trace32/../lib/byte_fifo.h ****     unsigned short mask;
  16:trace32/../lib/byte_fifo.h **** 	unsigned char  buf[];
  17:trace32/../lib/byte_fifo.h **** } byte_fifo_t;
  18:trace32/../lib/byte_fifo.h **** 
  19:trace32/../lib/byte_fifo.h **** #define TEST_2erPOTENZ(x) (((x) & ((x) - 1))?0:(x))
  20:trace32/../lib/byte_fifo.h **** #define TEST_64k(x)       ((x)>0x10000?0:(x))
  21:trace32/../lib/byte_fifo.h **** #define TEST_SIZE(x)      (TEST_64k(TEST_2erPOTENZ(x)))
  22:trace32/../lib/byte_fifo.h **** 
  23:trace32/../lib/byte_fifo.h **** //size muss einer 2er Potenzzahl sein, andernfalls gibt der Compiler
  24:trace32/../lib/byte_fifo.h **** //die Fehlermeldung aus, dass die Array-Größe (hier -1) ungültit ist
  25:trace32/../lib/byte_fifo.h **** #define BYTE_FIFO_INIT(size)  (byte_fifo_t) {.rd=0,\
  26:trace32/../lib/byte_fifo.h ****                                              .wr=0,\
  27:trace32/../lib/byte_fifo.h **** 						        	         .mask=TEST_SIZE(size)-1,\
  28:trace32/../lib/byte_fifo.h **** 								    		 .buf={[TEST_SIZE(size)-1]=0}\
  29:trace32/../lib/byte_fifo.h **** 									    	}
  30:trace32/../lib/byte_fifo.h **** 
  31:trace32/../lib/byte_fifo.h **** #define BYTE_FIFO_TYPEOF_RDWR typeof (((byte_fifo_t *)0)->rd)
  32:trace32/../lib/byte_fifo.h **** 
  33:trace32/../lib/byte_fifo.h **** #pragma GCC diagnostic push
  34:trace32/../lib/byte_fifo.h **** #pragma GCC diagnostic ignored "-Wunused-function"
  35:trace32/../lib/byte_fifo.h **** 
  36:trace32/../lib/byte_fifo.h **** static int byte_fifo_put_possible(byte_fifo_t *fifo)
  37:trace32/../lib/byte_fifo.h **** {
  26              		.loc 2 37 1
  27              		.cfi_startproc
  28              		@ Function supports interworking.
  29              		@ args = 0, pretend = 0, frame = 8
  30              		@ frame_needed = 1, uses_anonymous_args = 0
  31              		@ link register save eliminated.
  32 0000 04B02DE5 		str	fp, [sp, #-4]!
  33              		.cfi_def_cfa_offset 4
  34              		.cfi_offset 11, -4
  35 0004 00B08DE2 		add	fp, sp, #0
  36              		.cfi_def_cfa_register 11
  37 0008 0CD04DE2 		sub	sp, sp, #12
  38 000c 08000BE5 		str	r0, [fp, #-8]
  38:trace32/../lib/byte_fifo.h **** 	if(((fifo->wr+1)&(fifo->mask)) == fifo->rd)
  39              		.loc 2 38 11
  40 0010 08301BE5 		ldr	r3, [fp, #-8]
  41 0014 B230D3E1 		ldrh	r3, [r3, #2]
  42              		.loc 2 38 15
  43 0018 013083E2 		add	r3, r3, #1
  44              		.loc 2 38 24
  45 001c 08201BE5 		ldr	r2, [fp, #-8]
  46 0020 B420D2E1 		ldrh	r2, [r2, #4]
  47              		.loc 2 38 18
  48 0024 023003E0 		and	r3, r3, r2
  49              		.loc 2 38 40
  50 0028 08201BE5 		ldr	r2, [fp, #-8]
  51 002c B020D2E1 		ldrh	r2, [r2]
  52              		.loc 2 38 4
  53 0030 020053E1 		cmp	r3, r2
  54 0034 0100001A 		bne	.L2
  39:trace32/../lib/byte_fifo.h **** 		return -1;
  55              		.loc 2 39 10
  56 0038 0030E0E3 		mvn	r3, #0
  57 003c 000000EA 		b	.L3
  58              	.L2:
  40:trace32/../lib/byte_fifo.h **** 	
  41:trace32/../lib/byte_fifo.h **** 	return 0;
  59              		.loc 2 41 9
  60 0040 0030A0E3 		mov	r3, #0
  61              	.L3:
  42:trace32/../lib/byte_fifo.h **** }
  62              		.loc 2 42 1
  63 0044 0300A0E1 		mov	r0, r3
  64 0048 00D08BE2 		add	sp, fp, #0
  65              		.cfi_def_cfa_register 13
  66              		@ sp needed
  67 004c 04B09DE4 		ldr	fp, [sp], #4
  68              		.cfi_restore 11
  69              		.cfi_def_cfa_offset 0
  70 0050 1EFF2FE1 		bx	lr
  71              		.cfi_endproc
  72              	.LFE5:
  74              		.section	.text.byte_fifo_remain,"ax",%progbits
  75              		.align	2
  76              		.syntax unified
  77              		.arm
  79              	byte_fifo_remain:
  80              	.LFB6:
  43:trace32/../lib/byte_fifo.h **** 
  44:trace32/../lib/byte_fifo.h **** static BYTE_FIFO_TYPEOF_RDWR byte_fifo_remain(byte_fifo_t *fifo)
  45:trace32/../lib/byte_fifo.h **** {
  81              		.loc 2 45 1
  82              		.cfi_startproc
  83              		@ Function supports interworking.
  84              		@ args = 0, pretend = 0, frame = 8
  85              		@ frame_needed = 1, uses_anonymous_args = 0
  86              		@ link register save eliminated.
  87 0000 04B02DE5 		str	fp, [sp, #-4]!
  88              		.cfi_def_cfa_offset 4
  89              		.cfi_offset 11, -4
  90 0004 00B08DE2 		add	fp, sp, #0
  91              		.cfi_def_cfa_register 11
  92 0008 0CD04DE2 		sub	sp, sp, #12
  93 000c 08000BE5 		str	r0, [fp, #-8]
  46:trace32/../lib/byte_fifo.h **** 	return fifo->mask - ((fifo->wr-fifo->rd)&fifo->mask);
  94              		.loc 2 46 37
  95 0010 08301BE5 		ldr	r3, [fp, #-8]
  96 0014 B020D3E1 		ldrh	r2, [r3]
  97              		.loc 2 46 28
  98 0018 08301BE5 		ldr	r3, [fp, #-8]
  99 001c B230D3E1 		ldrh	r3, [r3, #2]
 100              		.loc 2 46 20
 101 0020 033042E0 		sub	r3, r2, r3
 102 0024 0338A0E1 		lsl	r3, r3, #16
 103 0028 2338A0E1 		lsr	r3, r3, #16
 104 002c 013043E2 		sub	r3, r3, #1
 105 0030 0338A0E1 		lsl	r3, r3, #16
 106 0034 2338A0E1 		lsr	r3, r3, #16
 107 0038 0338A0E1 		lsl	r3, r3, #16
 108 003c 4328A0E1 		asr	r2, r3, #16
 109              		.loc 2 46 47
 110 0040 08301BE5 		ldr	r3, [fp, #-8]
 111 0044 B430D3E1 		ldrh	r3, [r3, #4]
 112 0048 0338A0E1 		lsl	r3, r3, #16
 113 004c 4338A0E1 		asr	r3, r3, #16
 114              		.loc 2 46 20
 115 0050 023003E0 		and	r3, r3, r2
 116 0054 0338A0E1 		lsl	r3, r3, #16
 117 0058 4338A0E1 		asr	r3, r3, #16
 118 005c 0338A0E1 		lsl	r3, r3, #16
 119 0060 2338A0E1 		lsr	r3, r3, #16
  47:trace32/../lib/byte_fifo.h **** }
 120              		.loc 2 47 1
 121 0064 0300A0E1 		mov	r0, r3
 122 0068 00D08BE2 		add	sp, fp, #0
 123              		.cfi_def_cfa_register 13
 124              		@ sp needed
 125 006c 04B09DE4 		ldr	fp, [sp], #4
 126              		.cfi_restore 11
 127              		.cfi_def_cfa_offset 0
 128 0070 1EFF2FE1 		bx	lr
 129              		.cfi_endproc
 130              	.LFE6:
 132              		.section	.text.byte_fifo_used,"ax",%progbits
 133              		.align	2
 134              		.syntax unified
 135              		.arm
 137              	byte_fifo_used:
 138              	.LFB7:
  48:trace32/../lib/byte_fifo.h **** 	
  49:trace32/../lib/byte_fifo.h **** static BYTE_FIFO_TYPEOF_RDWR byte_fifo_used(byte_fifo_t *fifo)
  50:trace32/../lib/byte_fifo.h **** {
 139              		.loc 2 50 1
 140              		.cfi_startproc
 141              		@ Function supports interworking.
 142              		@ args = 0, pretend = 0, frame = 8
 143              		@ frame_needed = 1, uses_anonymous_args = 0
 144              		@ link register save eliminated.
 145 0000 04B02DE5 		str	fp, [sp, #-4]!
 146              		.cfi_def_cfa_offset 4
 147              		.cfi_offset 11, -4
 148 0004 00B08DE2 		add	fp, sp, #0
 149              		.cfi_def_cfa_register 11
 150 0008 0CD04DE2 		sub	sp, sp, #12
 151 000c 08000BE5 		str	r0, [fp, #-8]
  51:trace32/../lib/byte_fifo.h **** 	return (fifo->wr-fifo->rd)&fifo->mask;
 152              		.loc 2 51 14
 153 0010 08301BE5 		ldr	r3, [fp, #-8]
 154 0014 B220D3E1 		ldrh	r2, [r3, #2]
 155              		.loc 2 51 23
 156 0018 08301BE5 		ldr	r3, [fp, #-8]
 157 001c B030D3E1 		ldrh	r3, [r3]
 158              		.loc 2 51 18
 159 0020 033042E0 		sub	r3, r2, r3
 160 0024 0338A0E1 		lsl	r3, r3, #16
 161 0028 2338A0E1 		lsr	r3, r3, #16
 162 002c 0338A0E1 		lsl	r3, r3, #16
 163 0030 4328A0E1 		asr	r2, r3, #16
 164              		.loc 2 51 33
 165 0034 08301BE5 		ldr	r3, [fp, #-8]
 166 0038 B430D3E1 		ldrh	r3, [r3, #4]
 167 003c 0338A0E1 		lsl	r3, r3, #16
 168 0040 4338A0E1 		asr	r3, r3, #16
 169              		.loc 2 51 28
 170 0044 023003E0 		and	r3, r3, r2
 171 0048 0338A0E1 		lsl	r3, r3, #16
 172 004c 4338A0E1 		asr	r3, r3, #16
 173 0050 0338A0E1 		lsl	r3, r3, #16
 174 0054 2338A0E1 		lsr	r3, r3, #16
  52:trace32/../lib/byte_fifo.h **** }
 175              		.loc 2 52 1
 176 0058 0300A0E1 		mov	r0, r3
 177 005c 00D08BE2 		add	sp, fp, #0
 178              		.cfi_def_cfa_register 13
 179              		@ sp needed
 180 0060 04B09DE4 		ldr	fp, [sp], #4
 181              		.cfi_restore 11
 182              		.cfi_def_cfa_offset 0
 183 0064 1EFF2FE1 		bx	lr
 184              		.cfi_endproc
 185              	.LFE7:
 187              		.section	.text.byte_fifo_put,"ax",%progbits
 188              		.align	2
 189              		.syntax unified
 190              		.arm
 192              	byte_fifo_put:
 193              	.LFB8:
  53:trace32/../lib/byte_fifo.h **** 	
  54:trace32/../lib/byte_fifo.h **** static int byte_fifo_put(byte_fifo_t *fifo,unsigned char val)
  55:trace32/../lib/byte_fifo.h **** {
 194              		.loc 2 55 1
 195              		.cfi_startproc
 196              		@ Function supports interworking.
 197              		@ args = 0, pretend = 0, frame = 8
 198              		@ frame_needed = 1, uses_anonymous_args = 0
 199              		@ link register save eliminated.
 200 0000 04B02DE5 		str	fp, [sp, #-4]!
 201              		.cfi_def_cfa_offset 4
 202              		.cfi_offset 11, -4
 203 0004 00B08DE2 		add	fp, sp, #0
 204              		.cfi_def_cfa_register 11
 205 0008 0CD04DE2 		sub	sp, sp, #12
 206 000c 08000BE5 		str	r0, [fp, #-8]
 207 0010 0130A0E1 		mov	r3, r1
 208 0014 09304BE5 		strb	r3, [fp, #-9]
  56:trace32/../lib/byte_fifo.h **** 	if(((fifo->wr+1)&(fifo->mask)) == fifo->rd)
 209              		.loc 2 56 11
 210 0018 08301BE5 		ldr	r3, [fp, #-8]
 211 001c B230D3E1 		ldrh	r3, [r3, #2]
 212              		.loc 2 56 15
 213 0020 013083E2 		add	r3, r3, #1
 214              		.loc 2 56 24
 215 0024 08201BE5 		ldr	r2, [fp, #-8]
 216 0028 B420D2E1 		ldrh	r2, [r2, #4]
 217              		.loc 2 56 18
 218 002c 023003E0 		and	r3, r3, r2
 219              		.loc 2 56 40
 220 0030 08201BE5 		ldr	r2, [fp, #-8]
 221 0034 B020D2E1 		ldrh	r2, [r2]
 222              		.loc 2 56 4
 223 0038 020053E1 		cmp	r3, r2
 224 003c 0100001A 		bne	.L9
  57:trace32/../lib/byte_fifo.h **** 		return -1;
 225              		.loc 2 57 10
 226 0040 0030E0E3 		mvn	r3, #0
 227 0044 190000EA 		b	.L10
 228              	.L9:
  58:trace32/../lib/byte_fifo.h **** 	
  59:trace32/../lib/byte_fifo.h **** 	fifo->buf[fifo->wr]=val;
 229              		.loc 2 59 16
 230 0048 08301BE5 		ldr	r3, [fp, #-8]
 231 004c B230D3E1 		ldrh	r3, [r3, #2]
 232 0050 0320A0E1 		mov	r2, r3
 233              		.loc 2 59 21
 234 0054 08301BE5 		ldr	r3, [fp, #-8]
 235 0058 023083E0 		add	r3, r3, r2
 236 005c 09205BE5 		ldrb	r2, [fp, #-9]
 237 0060 0620C3E5 		strb	r2, [r3, #6]
  60:trace32/../lib/byte_fifo.h **** 	fifo->wr=(fifo->wr+1)&(fifo->mask);
 238              		.loc 2 60 16
 239 0064 08301BE5 		ldr	r3, [fp, #-8]
 240 0068 B230D3E1 		ldrh	r3, [r3, #2]
 241              		.loc 2 60 20
 242 006c 013083E2 		add	r3, r3, #1
 243 0070 0338A0E1 		lsl	r3, r3, #16
 244 0074 2338A0E1 		lsr	r3, r3, #16
 245 0078 0338A0E1 		lsl	r3, r3, #16
 246 007c 4328A0E1 		asr	r2, r3, #16
 247              		.loc 2 60 29
 248 0080 08301BE5 		ldr	r3, [fp, #-8]
 249 0084 B430D3E1 		ldrh	r3, [r3, #4]
 250 0088 0338A0E1 		lsl	r3, r3, #16
 251 008c 4338A0E1 		asr	r3, r3, #16
 252              		.loc 2 60 23
 253 0090 023003E0 		and	r3, r3, r2
 254 0094 0338A0E1 		lsl	r3, r3, #16
 255 0098 4338A0E1 		asr	r3, r3, #16
 256 009c 0338A0E1 		lsl	r3, r3, #16
 257 00a0 2328A0E1 		lsr	r2, r3, #16
 258              		.loc 2 60 10
 259 00a4 08301BE5 		ldr	r3, [fp, #-8]
 260 00a8 B220C3E1 		strh	r2, [r3, #2]	@ movhi
  61:trace32/../lib/byte_fifo.h **** 	return 0;
 261              		.loc 2 61 9
 262 00ac 0030A0E3 		mov	r3, #0
 263              	.L10:
  62:trace32/../lib/byte_fifo.h **** }
 264              		.loc 2 62 1
 265 00b0 0300A0E1 		mov	r0, r3
 266 00b4 00D08BE2 		add	sp, fp, #0
 267              		.cfi_def_cfa_register 13
 268              		@ sp needed
 269 00b8 04B09DE4 		ldr	fp, [sp], #4
 270              		.cfi_restore 11
 271              		.cfi_def_cfa_offset 0
 272 00bc 1EFF2FE1 		bx	lr
 273              		.cfi_endproc
 274              	.LFE8:
 276              		.section	.text.byte_fifo_get_possible,"ax",%progbits
 277              		.align	2
 278              		.syntax unified
 279              		.arm
 281              	byte_fifo_get_possible:
 282              	.LFB9:
  63:trace32/../lib/byte_fifo.h **** 
  64:trace32/../lib/byte_fifo.h **** static int byte_fifo_get_possible(byte_fifo_t *fifo)
  65:trace32/../lib/byte_fifo.h **** {
 283              		.loc 2 65 1
 284              		.cfi_startproc
 285              		@ Function supports interworking.
 286              		@ args = 0, pretend = 0, frame = 8
 287              		@ frame_needed = 1, uses_anonymous_args = 0
 288              		@ link register save eliminated.
 289 0000 04B02DE5 		str	fp, [sp, #-4]!
 290              		.cfi_def_cfa_offset 4
 291              		.cfi_offset 11, -4
 292 0004 00B08DE2 		add	fp, sp, #0
 293              		.cfi_def_cfa_register 11
 294 0008 0CD04DE2 		sub	sp, sp, #12
 295 000c 08000BE5 		str	r0, [fp, #-8]
  66:trace32/../lib/byte_fifo.h **** 	if(fifo->rd == fifo->wr)
 296              		.loc 2 66 9
 297 0010 08301BE5 		ldr	r3, [fp, #-8]
 298 0014 B020D3E1 		ldrh	r2, [r3]
 299              		.loc 2 66 21
 300 0018 08301BE5 		ldr	r3, [fp, #-8]
 301 001c B230D3E1 		ldrh	r3, [r3, #2]
 302              		.loc 2 66 4
 303 0020 030052E1 		cmp	r2, r3
 304 0024 0100001A 		bne	.L12
  67:trace32/../lib/byte_fifo.h **** 		return -1;
 305              		.loc 2 67 10
 306 0028 0030E0E3 		mvn	r3, #0
 307 002c 000000EA 		b	.L13
 308              	.L12:
  68:trace32/../lib/byte_fifo.h **** 		
  69:trace32/../lib/byte_fifo.h **** 	return 0;
 309              		.loc 2 69 9
 310 0030 0030A0E3 		mov	r3, #0
 311              	.L13:
  70:trace32/../lib/byte_fifo.h **** }
 312              		.loc 2 70 1
 313 0034 0300A0E1 		mov	r0, r3
 314 0038 00D08BE2 		add	sp, fp, #0
 315              		.cfi_def_cfa_register 13
 316              		@ sp needed
 317 003c 04B09DE4 		ldr	fp, [sp], #4
 318              		.cfi_restore 11
 319              		.cfi_def_cfa_offset 0
 320 0040 1EFF2FE1 		bx	lr
 321              		.cfi_endproc
 322              	.LFE9:
 324              		.section	.text.byte_fifo_get,"ax",%progbits
 325              		.align	2
 326              		.syntax unified
 327              		.arm
 329              	byte_fifo_get:
 330              	.LFB10:
  71:trace32/../lib/byte_fifo.h **** 
  72:trace32/../lib/byte_fifo.h **** static int byte_fifo_get(byte_fifo_t *fifo,unsigned char *val)
  73:trace32/../lib/byte_fifo.h **** {
 331              		.loc 2 73 1
 332              		.cfi_startproc
 333              		@ Function supports interworking.
 334              		@ args = 0, pretend = 0, frame = 8
 335              		@ frame_needed = 1, uses_anonymous_args = 0
 336              		@ link register save eliminated.
 337 0000 04B02DE5 		str	fp, [sp, #-4]!
 338              		.cfi_def_cfa_offset 4
 339              		.cfi_offset 11, -4
 340 0004 00B08DE2 		add	fp, sp, #0
 341              		.cfi_def_cfa_register 11
 342 0008 0CD04DE2 		sub	sp, sp, #12
 343 000c 08000BE5 		str	r0, [fp, #-8]
 344 0010 0C100BE5 		str	r1, [fp, #-12]
  74:trace32/../lib/byte_fifo.h **** 	if(fifo->rd == fifo->wr)
 345              		.loc 2 74 9
 346 0014 08301BE5 		ldr	r3, [fp, #-8]
 347 0018 B020D3E1 		ldrh	r2, [r3]
 348              		.loc 2 74 21
 349 001c 08301BE5 		ldr	r3, [fp, #-8]
 350 0020 B230D3E1 		ldrh	r3, [r3, #2]
 351              		.loc 2 74 4
 352 0024 030052E1 		cmp	r2, r3
 353 0028 0100001A 		bne	.L15
  75:trace32/../lib/byte_fifo.h **** 		return -1;
 354              		.loc 2 75 10
 355 002c 0030E0E3 		mvn	r3, #0
 356 0030 1A0000EA 		b	.L16
 357              	.L15:
  76:trace32/../lib/byte_fifo.h **** 		
  77:trace32/../lib/byte_fifo.h **** 	*val=fifo->buf[fifo->rd];
 358              		.loc 2 77 21
 359 0034 08301BE5 		ldr	r3, [fp, #-8]
 360 0038 B030D3E1 		ldrh	r3, [r3]
 361 003c 0320A0E1 		mov	r2, r3
 362              		.loc 2 77 16
 363 0040 08301BE5 		ldr	r3, [fp, #-8]
 364 0044 023083E0 		add	r3, r3, r2
 365 0048 0620D3E5 		ldrb	r2, [r3, #6]	@ zero_extendqisi2
 366              		.loc 2 77 6
 367 004c 0C301BE5 		ldr	r3, [fp, #-12]
 368 0050 0020C3E5 		strb	r2, [r3]
  78:trace32/../lib/byte_fifo.h **** 	fifo->rd=(fifo->rd+1)&(fifo->mask);
 369              		.loc 2 78 16
 370 0054 08301BE5 		ldr	r3, [fp, #-8]
 371 0058 B030D3E1 		ldrh	r3, [r3]
 372              		.loc 2 78 20
 373 005c 013083E2 		add	r3, r3, #1
 374 0060 0338A0E1 		lsl	r3, r3, #16
 375 0064 2338A0E1 		lsr	r3, r3, #16
 376 0068 0338A0E1 		lsl	r3, r3, #16
 377 006c 4328A0E1 		asr	r2, r3, #16
 378              		.loc 2 78 29
 379 0070 08301BE5 		ldr	r3, [fp, #-8]
 380 0074 B430D3E1 		ldrh	r3, [r3, #4]
 381 0078 0338A0E1 		lsl	r3, r3, #16
 382 007c 4338A0E1 		asr	r3, r3, #16
 383              		.loc 2 78 23
 384 0080 023003E0 		and	r3, r3, r2
 385 0084 0338A0E1 		lsl	r3, r3, #16
 386 0088 4338A0E1 		asr	r3, r3, #16
 387 008c 0338A0E1 		lsl	r3, r3, #16
 388 0090 2328A0E1 		lsr	r2, r3, #16
 389              		.loc 2 78 10
 390 0094 08301BE5 		ldr	r3, [fp, #-8]
 391 0098 B020C3E1 		strh	r2, [r3]	@ movhi
  79:trace32/../lib/byte_fifo.h **** 	return 0;
 392              		.loc 2 79 9
 393 009c 0030A0E3 		mov	r3, #0
 394              	.L16:
  80:trace32/../lib/byte_fifo.h **** }
 395              		.loc 2 80 1
 396 00a0 0300A0E1 		mov	r0, r3
 397 00a4 00D08BE2 		add	sp, fp, #0
 398              		.cfi_def_cfa_register 13
 399              		@ sp needed
 400 00a8 04B09DE4 		ldr	fp, [sp], #4
 401              		.cfi_restore 11
 402              		.cfi_def_cfa_offset 0
 403 00ac 1EFF2FE1 		bx	lr
 404              		.cfi_endproc
 405              	.LFE10:
 407              		.section	.text.byte_fifo_cb_put_possible,"ax",%progbits
 408              		.align	2
 409              		.syntax unified
 410              		.arm
 412              	byte_fifo_cb_put_possible:
 413              	.LFB11:
 414              		.file 3 "trace32/../lib/byte_fifo_cb.h"
   1:trace32/../lib/byte_fifo_cb.h **** /* Byte FIFO with CallBack
   2:trace32/../lib/byte_fifo_cb.h ****  *
   3:trace32/../lib/byte_fifo_cb.h ****  * Appends the Byte_Fifo with a callback function, which is called
   4:trace32/../lib/byte_fifo_cb.h ****  * when putting some stuff into the fifo (e.g. Enable transmitting interrupt)
   5:trace32/../lib/byte_fifo_cb.h ****  */
   6:trace32/../lib/byte_fifo_cb.h **** 
   7:trace32/../lib/byte_fifo_cb.h **** #ifndef __BYTE_FIFO_CB_H__
   8:trace32/../lib/byte_fifo_cb.h **** #define __BYTE_FIFO_CB_H__
   9:trace32/../lib/byte_fifo_cb.h **** 
  10:trace32/../lib/byte_fifo_cb.h **** #include "byte_fifo.h"
  11:trace32/../lib/byte_fifo_cb.h **** 
  12:trace32/../lib/byte_fifo_cb.h **** typedef void (*byte_fifo_cb)(void);
  13:trace32/../lib/byte_fifo_cb.h **** 
  14:trace32/../lib/byte_fifo_cb.h **** typedef struct {
  15:trace32/../lib/byte_fifo_cb.h **** 	byte_fifo_cb cb;
  16:trace32/../lib/byte_fifo_cb.h **** 	byte_fifo_t  byte_fifo; //Aufgrund des Flexible Array Member hier hinter keine weiteren Strukturel
  17:trace32/../lib/byte_fifo_cb.h **** } byte_fifo_cb_t;
  18:trace32/../lib/byte_fifo_cb.h **** 
  19:trace32/../lib/byte_fifo_cb.h **** #define BYTE_FIFO_CB_INIT(size,func)  (byte_fifo_cb_t) {.cb=func, \
  20:trace32/../lib/byte_fifo_cb.h ****                                                         .byte_fifo=BYTE_FIFO_INIT(size) \
  21:trace32/../lib/byte_fifo_cb.h **** 									    			   }
  22:trace32/../lib/byte_fifo_cb.h **** 
  23:trace32/../lib/byte_fifo_cb.h **** size_t byte_fifo_cb_putsize(byte_fifo_cb_t *fifo,const unsigned char *start,size_t len);
  24:trace32/../lib/byte_fifo_cb.h **** 
  25:trace32/../lib/byte_fifo_cb.h **** #pragma GCC diagnostic push
  26:trace32/../lib/byte_fifo_cb.h **** #pragma GCC diagnostic ignored "-Wunused-function"
  27:trace32/../lib/byte_fifo_cb.h **** 
  28:trace32/../lib/byte_fifo_cb.h **** static int byte_fifo_cb_put_possible(byte_fifo_cb_t *fifo)
  29:trace32/../lib/byte_fifo_cb.h **** {
 415              		.loc 3 29 1
 416              		.cfi_startproc
 417              		@ Function supports interworking.
 418              		@ args = 0, pretend = 0, frame = 8
 419              		@ frame_needed = 1, uses_anonymous_args = 0
 420 0000 00482DE9 		push	{fp, lr}
 421              		.cfi_def_cfa_offset 8
 422              		.cfi_offset 11, -8
 423              		.cfi_offset 14, -4
 424 0004 04B08DE2 		add	fp, sp, #4
 425              		.cfi_def_cfa 11, 4
 426 0008 08D04DE2 		sub	sp, sp, #8
 427 000c 08000BE5 		str	r0, [fp, #-8]
  30:trace32/../lib/byte_fifo_cb.h **** 	return byte_fifo_put_possible(&fifo->byte_fifo);
 428              		.loc 3 30 9
 429 0010 08301BE5 		ldr	r3, [fp, #-8]
 430 0014 043083E2 		add	r3, r3, #4
 431 0018 0300A0E1 		mov	r0, r3
 432 001c 18309FE5 		ldr	r3, .L19
 433 0020 0FE0A0E1 		mov	lr, pc
 434 0024 13FF2FE1 		bx	r3
 435              	.LVL0:
 436 0028 0030A0E1 		mov	r3, r0
  31:trace32/../lib/byte_fifo_cb.h **** }
 437              		.loc 3 31 1
 438 002c 0300A0E1 		mov	r0, r3
 439 0030 04D04BE2 		sub	sp, fp, #4
 440              		.cfi_def_cfa 13, 8
 441              		@ sp needed
 442 0034 0048BDE8 		pop	{fp, lr}
 443              		.cfi_restore 14
 444              		.cfi_restore 11
 445              		.cfi_def_cfa_offset 0
 446 0038 1EFF2FE1 		bx	lr
 447              	.L20:
 448              		.align	2
 449              	.L19:
 450 003c 00000000 		.word	byte_fifo_put_possible
 451              		.cfi_endproc
 452              	.LFE11:
 454              		.section	.text.byte_fifo_cb_put,"ax",%progbits
 455              		.align	2
 456              		.syntax unified
 457              		.arm
 459              	byte_fifo_cb_put:
 460              	.LFB12:
  32:trace32/../lib/byte_fifo_cb.h **** 	
  33:trace32/../lib/byte_fifo_cb.h **** static int byte_fifo_cb_put(byte_fifo_cb_t *fifo,unsigned char val)
  34:trace32/../lib/byte_fifo_cb.h **** {
 461              		.loc 3 34 1
 462              		.cfi_startproc
 463              		@ Function supports interworking.
 464              		@ args = 0, pretend = 0, frame = 16
 465              		@ frame_needed = 1, uses_anonymous_args = 0
 466 0000 00482DE9 		push	{fp, lr}
 467              		.cfi_def_cfa_offset 8
 468              		.cfi_offset 11, -8
 469              		.cfi_offset 14, -4
 470 0004 04B08DE2 		add	fp, sp, #4
 471              		.cfi_def_cfa 11, 4
 472 0008 10D04DE2 		sub	sp, sp, #16
 473 000c 10000BE5 		str	r0, [fp, #-16]
 474 0010 0130A0E1 		mov	r3, r1
 475 0014 11304BE5 		strb	r3, [fp, #-17]
  35:trace32/../lib/byte_fifo_cb.h **** 	int ret=byte_fifo_put(&fifo->byte_fifo,val);
 476              		.loc 3 35 10
 477 0018 10301BE5 		ldr	r3, [fp, #-16]
 478 001c 043083E2 		add	r3, r3, #4
 479 0020 11205BE5 		ldrb	r2, [fp, #-17]	@ zero_extendqisi2
 480 0024 0210A0E1 		mov	r1, r2
 481 0028 0300A0E1 		mov	r0, r3
 482 002c 48309FE5 		ldr	r3, .L24
 483 0030 0FE0A0E1 		mov	lr, pc
 484 0034 13FF2FE1 		bx	r3
 485              	.LVL1:
 486 0038 08000BE5 		str	r0, [fp, #-8]
  36:trace32/../lib/byte_fifo_cb.h **** 	if( !ret && fifo->cb)
 487              		.loc 3 36 4
 488 003c 08301BE5 		ldr	r3, [fp, #-8]
 489 0040 000053E3 		cmp	r3, #0
 490 0044 0700001A 		bne	.L22
 491              		.loc 3 36 18 discriminator 1
 492 0048 10301BE5 		ldr	r3, [fp, #-16]
 493 004c 003093E5 		ldr	r3, [r3]
 494              		.loc 3 36 11 discriminator 1
 495 0050 000053E3 		cmp	r3, #0
 496 0054 0300000A 		beq	.L22
  37:trace32/../lib/byte_fifo_cb.h **** 		fifo->cb();
 497              		.loc 3 37 7
 498 0058 10301BE5 		ldr	r3, [fp, #-16]
 499 005c 003093E5 		ldr	r3, [r3]
 500              		.loc 3 37 3
 501 0060 0FE0A0E1 		mov	lr, pc
 502 0064 13FF2FE1 		bx	r3
 503              	.LVL2:
 504              	.L22:
  38:trace32/../lib/byte_fifo_cb.h **** 	return ret;
 505              		.loc 3 38 9
 506 0068 08301BE5 		ldr	r3, [fp, #-8]
  39:trace32/../lib/byte_fifo_cb.h **** }
 507              		.loc 3 39 1
 508 006c 0300A0E1 		mov	r0, r3
 509 0070 04D04BE2 		sub	sp, fp, #4
 510              		.cfi_def_cfa 13, 8
 511              		@ sp needed
 512 0074 0048BDE8 		pop	{fp, lr}
 513              		.cfi_restore 14
 514              		.cfi_restore 11
 515              		.cfi_def_cfa_offset 0
 516 0078 1EFF2FE1 		bx	lr
 517              	.L25:
 518              		.align	2
 519              	.L24:
 520 007c 00000000 		.word	byte_fifo_put
 521              		.cfi_endproc
 522              	.LFE12:
 524              		.section	.text.byte_fifo_cb_get_possible,"ax",%progbits
 525              		.align	2
 526              		.syntax unified
 527              		.arm
 529              	byte_fifo_cb_get_possible:
 530              	.LFB13:
  40:trace32/../lib/byte_fifo_cb.h **** 
  41:trace32/../lib/byte_fifo_cb.h **** static int byte_fifo_cb_get_possible(byte_fifo_cb_t *fifo)
  42:trace32/../lib/byte_fifo_cb.h **** {
 531              		.loc 3 42 1
 532              		.cfi_startproc
 533              		@ Function supports interworking.
 534              		@ args = 0, pretend = 0, frame = 8
 535              		@ frame_needed = 1, uses_anonymous_args = 0
 536 0000 00482DE9 		push	{fp, lr}
 537              		.cfi_def_cfa_offset 8
 538              		.cfi_offset 11, -8
 539              		.cfi_offset 14, -4
 540 0004 04B08DE2 		add	fp, sp, #4
 541              		.cfi_def_cfa 11, 4
 542 0008 08D04DE2 		sub	sp, sp, #8
 543 000c 08000BE5 		str	r0, [fp, #-8]
  43:trace32/../lib/byte_fifo_cb.h **** 	return byte_fifo_get_possible(&fifo->byte_fifo);
 544              		.loc 3 43 9
 545 0010 08301BE5 		ldr	r3, [fp, #-8]
 546 0014 043083E2 		add	r3, r3, #4
 547 0018 0300A0E1 		mov	r0, r3
 548 001c 18309FE5 		ldr	r3, .L28
 549 0020 0FE0A0E1 		mov	lr, pc
 550 0024 13FF2FE1 		bx	r3
 551              	.LVL3:
 552 0028 0030A0E1 		mov	r3, r0
  44:trace32/../lib/byte_fifo_cb.h **** }
 553              		.loc 3 44 1
 554 002c 0300A0E1 		mov	r0, r3
 555 0030 04D04BE2 		sub	sp, fp, #4
 556              		.cfi_def_cfa 13, 8
 557              		@ sp needed
 558 0034 0048BDE8 		pop	{fp, lr}
 559              		.cfi_restore 14
 560              		.cfi_restore 11
 561              		.cfi_def_cfa_offset 0
 562 0038 1EFF2FE1 		bx	lr
 563              	.L29:
 564              		.align	2
 565              	.L28:
 566 003c 00000000 		.word	byte_fifo_get_possible
 567              		.cfi_endproc
 568              	.LFE13:
 570              		.section	.text.byte_fifo_cb_get,"ax",%progbits
 571              		.align	2
 572              		.syntax unified
 573              		.arm
 575              	byte_fifo_cb_get:
 576              	.LFB14:
  45:trace32/../lib/byte_fifo_cb.h **** 
  46:trace32/../lib/byte_fifo_cb.h **** static int byte_fifo_cb_get(byte_fifo_cb_t *fifo,unsigned char *val)
  47:trace32/../lib/byte_fifo_cb.h **** {
 577              		.loc 3 47 1
 578              		.cfi_startproc
 579              		@ Function supports interworking.
 580              		@ args = 0, pretend = 0, frame = 8
 581              		@ frame_needed = 1, uses_anonymous_args = 0
 582 0000 00482DE9 		push	{fp, lr}
 583              		.cfi_def_cfa_offset 8
 584              		.cfi_offset 11, -8
 585              		.cfi_offset 14, -4
 586 0004 04B08DE2 		add	fp, sp, #4
 587              		.cfi_def_cfa 11, 4
 588 0008 08D04DE2 		sub	sp, sp, #8
 589 000c 08000BE5 		str	r0, [fp, #-8]
 590 0010 0C100BE5 		str	r1, [fp, #-12]
  48:trace32/../lib/byte_fifo_cb.h **** 	return byte_fifo_get(&fifo->byte_fifo,val);
 591              		.loc 3 48 9
 592 0014 08301BE5 		ldr	r3, [fp, #-8]
 593 0018 043083E2 		add	r3, r3, #4
 594 001c 0C101BE5 		ldr	r1, [fp, #-12]
 595 0020 0300A0E1 		mov	r0, r3
 596 0024 18309FE5 		ldr	r3, .L32
 597 0028 0FE0A0E1 		mov	lr, pc
 598 002c 13FF2FE1 		bx	r3
 599              	.LVL4:
 600 0030 0030A0E1 		mov	r3, r0
  49:trace32/../lib/byte_fifo_cb.h **** }
 601              		.loc 3 49 1
 602 0034 0300A0E1 		mov	r0, r3
 603 0038 04D04BE2 		sub	sp, fp, #4
 604              		.cfi_def_cfa 13, 8
 605              		@ sp needed
 606 003c 0048BDE8 		pop	{fp, lr}
 607              		.cfi_restore 14
 608              		.cfi_restore 11
 609              		.cfi_def_cfa_offset 0
 610 0040 1EFF2FE1 		bx	lr
 611              	.L33:
 612              		.align	2
 613              	.L32:
 614 0044 00000000 		.word	byte_fifo_get
 615              		.cfi_endproc
 616              	.LFE14:
 618              		.global	main_data
 619              		.bss
 620              		.align	2
 623              	main_data:
 624 0000 000000   		.space	3
 625              		.section	.text._exit,"ax",%progbits
 626              		.align	2
 627              		.global	_exit
 628              		.syntax unified
 629              		.arm
 631              	_exit:
 632              	.LFB15:
   1:main.c        **** #include <stdint.h>
   2:main.c        **** #include <stdio.h>
   3:main.c        **** #include <string.h>
   4:main.c        **** #include <unistd.h> //fuer _exit() usleep()
   5:main.c        **** 
   6:main.c        **** // Ausführungsumgebung 'automatisch' erkennen
   7:main.c        **** #if defined(MODE_RAM) || defined(MODE_ROM) || defined(MODE_SIM)
   8:main.c        **** #define NXT
   9:main.c        **** #else
  10:main.c        **** #define COMPILER_EXPLORER
  11:main.c        **** #endif
  12:main.c        **** 
  13:main.c        **** #ifdef NXT
  14:main.c        **** #include "AT91SAM7S64.h"
  15:main.c        **** #include "lib/aic.h"
  16:main.c        **** #include "lib/display.h"
  17:main.c        **** #include "lib/nxt_avr.h"
  18:main.c        **** #include "lib/systick.h"
  19:main.c        **** #include "lib/term.h"
  20:main.c        **** #include "main.h"
  21:main.c        **** // #include "lib/adc.h"
  22:main.c        **** #if defined(MODE_RAM) || defined(MODE_SIM)
  23:main.c        **** #include "trace32/udmon3.h"
  24:main.c        **** #endif
  25:main.c        **** 
  26:main.c        **** #define ZYKLUS_MS 4
  27:main.c        **** #define IDLE_MS 2
  28:main.c        **** #define HERZSCHLAG_PORT SENSOR_2 // SENSOR_1...4
  29:main.c        **** #if IDLE_MS >= ZYKLUS_MS
  30:main.c        **** #error "Idle_ms muss kleiner als zyklus_ms sein"
  31:main.c        **** #endif
  32:main.c        **** #endif
  33:main.c        **** #ifdef COMPILER_EXPLORER
  34:main.c        **** uint32_t systick_get_ms(void);
  35:main.c        **** #endif
  36:main.c        **** 
  37:main.c        **** /*****************************************************************************/
  38:main.c        **** /*   Globale Variablen                                                       */
  39:main.c        **** /*****************************************************************************/
  40:main.c        **** #ifdef NXT
  41:main.c        **** struct {
  42:main.c        ****   signed char term_status; // 0->false->Alles Bestens   -1->true->Overflow
  43:main.c        ****   unsigned char term_cnt;
  44:main.c        ****   unsigned char lowbat_cnt;
  45:main.c        **** } main_data = {
  46:main.c        ****     .term_status = 0,
  47:main.c        ****     .term_cnt = 0,
  48:main.c        ****     .lowbat_cnt = 0,
  49:main.c        **** };
  50:main.c        **** #endif
  51:main.c        **** 
  52:main.c        **** /*****************************************************************************/
  53:main.c        **** /*   Hilfsroutinen                                                           */
  54:main.c        **** /*   Standard-C-Library (weitere befinden sich in newlib_syscalls.c)         */
  55:main.c        **** /*****************************************************************************/
  56:main.c        **** // Routine wird von C-Lib aufgerufen (bspw. printf() abort())
  57:main.c        **** #ifdef NXT
  58:main.c        **** void _exit(int status) {
 633              		.loc 1 58 24
 634              		.cfi_startproc
 635              		@ Function supports interworking.
 636              		@ args = 0, pretend = 0, frame = 8
 637              		@ frame_needed = 1, uses_anonymous_args = 0
 638              		@ link register save eliminated.
 639 0000 04B02DE5 		str	fp, [sp, #-4]!
 640              		.cfi_def_cfa_offset 4
 641              		.cfi_offset 11, -4
 642 0004 00B08DE2 		add	fp, sp, #0
 643              		.cfi_def_cfa_register 11
 644 0008 0CD04DE2 		sub	sp, sp, #12
 645 000c 08000BE5 		str	r0, [fp, #-8]
 646              	.L35:
  59:main.c        ****   (void)status;
  60:main.c        ****   // LED-Blinken lassen
  61:main.c        ****   // Breakpoint setzen
  62:main.c        ****   while (1)
 647              		.loc 1 62 9
 648 0010 0000A0E1 		nop
 649 0014 FDFFFFEA 		b	.L35
 650              		.cfi_endproc
 651              	.LFE15:
 653              		.global	trace_buf0
 654              		.bss
 655 0003 00       		.align	2
 658              	trace_buf0:
 659 0004 00000000 		.space	400
 659      00000000 
 659      00000000 
 659      00000000 
 659      00000000 
 660              		.global	trace_buf1
 661              		.align	2
 664              	trace_buf1:
 665 0194 00000000 		.space	400
 665      00000000 
 665      00000000 
 665      00000000 
 665      00000000 
 666              		.section	.text.trace_scope,"ax",%progbits
 667              		.align	2
 668              		.global	trace_scope
 669              		.syntax unified
 670              		.arm
 672              	trace_scope:
 673              	.LFB16:
  63:main.c        ****     ;
  64:main.c        **** }
  65:main.c        **** #endif
  66:main.c        **** /************************************************************************/
  67:main.c        **** /*   Hilfsroutine zur Darstellung eines analogen Verlaufes entsprechend */
  68:main.c        **** /*   einem Oszillosop                                                   */
  69:main.c        **** /************************************************************************/
  70:main.c        **** #ifdef NXT
  71:main.c        **** #define TRACE_SIZE 200
  72:main.c        **** int16_t trace_buf0[TRACE_SIZE];
  73:main.c        **** int16_t trace_buf1[TRACE_SIZE];
  74:main.c        **** // Darstellung des Puffers über 'v.draw %e trace_buf0 trace_buf1'
  75:main.c        **** void trace_scope(int channel, int16_t value) {
 674              		.loc 1 75 46
 675              		.cfi_startproc
 676              		@ Function supports interworking.
 677              		@ args = 0, pretend = 0, frame = 8
 678              		@ frame_needed = 1, uses_anonymous_args = 0
 679              		@ link register save eliminated.
 680 0000 04B02DE5 		str	fp, [sp, #-4]!
 681              		.cfi_def_cfa_offset 4
 682              		.cfi_offset 11, -4
 683 0004 00B08DE2 		add	fp, sp, #0
 684              		.cfi_def_cfa_register 11
 685 0008 0CD04DE2 		sub	sp, sp, #12
 686 000c 08000BE5 		str	r0, [fp, #-8]
 687 0010 0130A0E1 		mov	r3, r1
 688 0014 BA304BE1 		strh	r3, [fp, #-10]	@ movhi
  76:main.c        ****   // #define TRACE_ROLL
  77:main.c        **** #ifdef TRACE_ROLL
  78:main.c        ****   if (channel == 0) {
  79:main.c        ****     for (int lauf = 0; lauf < (TRACE_SIZE - 1); lauf++)
  80:main.c        ****       trace_buf0[lauf] = trace_buf0[lauf + 1];
  81:main.c        ****     trace_buf0[TRACE_SIZE - 1] = value;
  82:main.c        ****   } else {
  83:main.c        ****     for (int lauf = 0; lauf < (TRACE_SIZE - 1); lauf++)
  84:main.c        ****       trace_buf1[lauf] = trace_buf1[lauf + 1];
  85:main.c        ****     trace_buf1[TRACE_SIZE - 1] = value;
  86:main.c        ****   }
  87:main.c        **** #else
  88:main.c        ****   static int trace_index = 0;
  89:main.c        ****   if (trace_index < TRACE_SIZE) {
 689              		.loc 1 89 19
 690 0018 A8309FE5 		ldr	r3, .L43
 691 001c 003093E5 		ldr	r3, [r3]
 692              		.loc 1 89 6
 693 0020 C70053E3 		cmp	r3, #199
 694 0024 110000CA 		bgt	.L37
  90:main.c        ****     if (channel == 0)
 695              		.loc 1 90 8
 696 0028 08301BE5 		ldr	r3, [fp, #-8]
 697 002c 000053E3 		cmp	r3, #0
 698 0030 0700001A 		bne	.L38
  91:main.c        ****       trace_buf0[trace_index] = value;
 699              		.loc 1 91 17
 700 0034 8C309FE5 		ldr	r3, .L43
 701 0038 003093E5 		ldr	r3, [r3]
 702              		.loc 1 91 31
 703 003c 88209FE5 		ldr	r2, .L43+4
 704 0040 8330A0E1 		lsl	r3, r3, #1
 705 0044 033082E0 		add	r3, r2, r3
 706 0048 BA205BE1 		ldrh	r2, [fp, #-10]	@ movhi
 707 004c B020C3E1 		strh	r2, [r3]	@ movhi
 708 0050 060000EA 		b	.L37
 709              	.L38:
  92:main.c        ****     else
  93:main.c        ****       trace_buf1[trace_index] = value;
 710              		.loc 1 93 17
 711 0054 6C309FE5 		ldr	r3, .L43
 712 0058 003093E5 		ldr	r3, [r3]
 713              		.loc 1 93 31
 714 005c 6C209FE5 		ldr	r2, .L43+8
 715 0060 8330A0E1 		lsl	r3, r3, #1
 716 0064 033082E0 		add	r3, r2, r3
 717 0068 BA205BE1 		ldrh	r2, [fp, #-10]	@ movhi
 718 006c B020C3E1 		strh	r2, [r3]	@ movhi
 719              	.L37:
  94:main.c        ****   } else {
  95:main.c        ****     // Pause, damit der Debugger in 'Ruhe' den gesamten Speicher auslesen kann
  96:main.c        ****   }
  97:main.c        ****   if (channel == 1) {
 720              		.loc 1 97 6
 721 0070 08301BE5 		ldr	r3, [fp, #-8]
 722 0074 010053E3 		cmp	r3, #1
 723 0078 0E00001A 		bne	.L42
  98:main.c        ****     trace_index++;
 724              		.loc 1 98 16
 725 007c 44309FE5 		ldr	r3, .L43
 726 0080 003093E5 		ldr	r3, [r3]
 727 0084 013083E2 		add	r3, r3, #1
 728 0088 38209FE5 		ldr	r2, .L43
 729 008c 003082E5 		str	r3, [r2]
  99:main.c        ****     trace_index = trace_index >= (3 * TRACE_SIZE) ? 0 : trace_index;
 730              		.loc 1 99 31
 731 0090 30309FE5 		ldr	r3, .L43
 732 0094 003093E5 		ldr	r3, [r3]
 733              		.loc 1 99 55
 734 0098 960F53E3 		cmp	r3, #600
 735 009c 020000AA 		bge	.L40
 736              		.loc 1 99 55 is_stmt 0 discriminator 1
 737 00a0 20309FE5 		ldr	r3, .L43
 738 00a4 003093E5 		ldr	r3, [r3]
 739 00a8 000000EA 		b	.L41
 740              	.L40:
 741              		.loc 1 99 55 discriminator 2
 742 00ac 0030A0E3 		mov	r3, #0
 743              	.L41:
 744              		.loc 1 99 17 is_stmt 1 discriminator 4
 745 00b0 10209FE5 		ldr	r2, .L43
 746 00b4 003082E5 		str	r3, [r2]
 747              	.L42:
 100:main.c        ****   }
 101:main.c        **** #endif
 102:main.c        **** }
 748              		.loc 1 102 1
 749 00b8 0000A0E1 		nop
 750 00bc 00D08BE2 		add	sp, fp, #0
 751              		.cfi_def_cfa_register 13
 752              		@ sp needed
 753 00c0 04B09DE4 		ldr	fp, [sp], #4
 754              		.cfi_restore 11
 755              		.cfi_def_cfa_offset 0
 756 00c4 1EFF2FE1 		bx	lr
 757              	.L44:
 758              		.align	2
 759              	.L43:
 760 00c8 6C040000 		.word	trace_index.4
 761 00cc 00000000 		.word	trace_buf0
 762 00d0 00000000 		.word	trace_buf1
 763              		.cfi_endproc
 764              	.LFE16:
 766              		.global	h
 767              		.bss
 768              		.align	2
 771              	h:
 772 0324 00000000 		.space	328
 772      00000000 
 772      00000000 
 772      00000000 
 772      00000000 
 773              		.section	.rodata
 774              		.align	2
 775              	.LC0:
 776 0000 5265616C 		.ascii	"Real BPM: %d\012\000"
 776      2042504D 
 776      3A202564 
 776      0A00
 777              		.section	.text.herzschlag_process,"ax",%progbits
 778              		.align	2
 779              		.global	herzschlag_process
 780              		.syntax unified
 781              		.arm
 783              	herzschlag_process:
 784              	.LFB17:
 103:main.c        **** #endif
 104:main.c        **** #ifdef COMPILER_EXPLORER
 105:main.c        **** void trace_scope(int mode, uint16_t value) {
 106:main.c        ****   static int pos0 = 0;
 107:main.c        ****   static int pos1 = 0;
 108:main.c        ****   int val = (value - 450) / 4;
 109:main.c        ****   val = val > 80 ? 80 : (val < 0 ? 0 : val);
 110:main.c        ****   if (mode == 0) {
 111:main.c        ****     pos0 = val;
 112:main.c        ****   } else {
 113:main.c        ****     pos1 = val;
 114:main.c        ****     if (pos1 == pos0) {
 115:main.c        ****       printf("%*c\n", pos0, '+');
 116:main.c        ****     } else if (pos1 > pos0) {
 117:main.c        ****       printf("%*c%*c\n", pos0, '*', pos1 - pos0, '-');
 118:main.c        ****     } else {
 119:main.c        ****       printf("%*c%*c\n", pos1, '-', pos0 - pos1, '*');
 120:main.c        ****     }
 121:main.c        ****   }
 122:main.c        **** }
 123:main.c        **** #endif
 124:main.c        **** #if defined MODE_SIM || defined COMPILER_EXPLORER
 125:main.c        **** // Nachfolgendes Const-Array enthält Rohdaten und 'ersetzt' den AD-Wanderl
 126:main.c        **** uint16_t simuli_idx = 0;
 127:main.c        **** const uint16_t simuli[] = {
 128:main.c        ****     595, 596, 594, 586, 578, 568, 555, 545, 532, 524, 516, 507, 499, 493, 487,
 129:main.c        ****     481, 476, 473, 471, 471, 473, 481, 487, 503, 513, 517, 518, 516, 515, 511,
 130:main.c        ****     507, 502, 497, 492, 489, 484, 479, 476, 473, 470, 468, 467, 467, 466, 467,
 131:main.c        ****     466, 465, 465, 465, 465, 465, 466, 466, 446, 440, 439, 440, 442, 447, 452,
 132:main.c        ****     455, 460, 463, 467, 470, 471, 472, 474, 474, 474, 473, 472, 471, 469, 468,
 133:main.c        ****     468, 467, 466, 465, 465, 465, 464, 465, 466, 466, 488, 495, 497, 499, 500,
 134:main.c        ****     505, 510, 518, 531, 543, 560, 572, 582, 591, 596, 598, 595, 591, 582, 572,
 135:main.c        ****     563, 550, 540, 527, 518, 512, 503, 497, 490, 484, 476, 469, 448, 436, 435,
 136:main.c        ****     437, 441, 447, 455, 462, 469, 475, 480, 485, 485, 485, 484, 481, 479, 476,
 137:main.c        ****     471, 467, 465, 461, 459, 457, 455, 455, 453, 454, 455, 456, 457, 461, 467,
 138:main.c        ****     468, 486, 490, 491, 489, 486, 483, 478, 474, 471, 466, 464, 462, 461, 460,
 139:main.c        ****     459, 459, 460, 461, 462, 463, 464, 465, 467, 467, 467, 467, 467, 467, 467,
 140:main.c        ****     462, 445, 440, 439, 440, 443, 446, 449, 456, 462, 471, 480, 490, 508, 524,
 141:main.c        ****     543, 558, 577, 586, 593, 597, 597, 592, 585, 575, 562, 552, 539, 530, 521,
 142:main.c        ****     511, 506, 501, 514, 515, 512, 507, 499, 492, 486, 480, 477, 475, 475, 477,
 143:main.c        ****     480, 482, 483, 484, 486, 485, 484, 483, 480, 478, 474, 471, 469, 467, 464,
 144:main.c        ****     461, 462, 462, 462, 463, 441, 436, 436, 439, 443, 447, 451, 455, 459, 461,
 145:main.c        ****     464, 465, 465, 467, 467, 466, 466, 465, 465, 466, 466, 466, 466, 466, 467,
 146:main.c        ****     467, 466, 467, 467, 466, 466, 467, 473, 477, 488, 493, 493, 492, 489, 486,
 147:main.c        ****     483, 481, 481, 480, 482, 486, 491, 501, 513, 525, 544, 556, 575, 587, 597,
 148:main.c        ****     605, 608, 606, 601, 595, 587, 578, 570, 555, 532, 516, 509, 505, 501, 499,
 149:main.c        ****     496, 493, 492, 490, 490, 490, 493, 494, 498, 501, 504, 507, 508, 508, 506,
 150:main.c        ****     503, 500, 497, 493, 490, 486, 482, 480, 477, 475, 476, 491, 498, 498, 496,
 151:main.c        ****     493, 489, 484, 482, 479, 474, 472, 470, 468, 468, 468, 468, 469, 470, 472,
 152:main.c        ****     472, 472, 473, 474, 473, 475, 474, 475, 475, 475, 475, 474, 469, 451, 443,
 153:main.c        ****     442, 442, 445, 447, 451, 455, 459, 463, 466, 470, 472, 475, 477, 480, 484,
 154:main.c        ****     488, 496, 508, 519, 531, 549, 561, 574, 581, 586, 587, 583, 576, 567, 558,
 155:main.c        ****     552, 544, 549, 544, 536, 529, 520, 510, 502, 492, 486, 481, 475, 473, 474,
 156:main.c        ****     475, 477, 482, 485, 490, 493, 496, 497, 498, 497, 496, 494, 491, 487, 483,
 157:main.c        ****     480, 470, 451, 443, 438, 438, 440, 443, 446, 451, 456, 461, 464, 469, 472,
 158:main.c        ****     474, 476, 477, 478, 478, 478, 478, 478, 478, 479, 479, 478, 479, 479, 478,
 159:main.c        ****     479, 478, 477, 479, 495, 501, 500, 498, 494, 490, 485, 480, 476, 472, 469,
 160:main.c        ****     466, 463, 463, 462, 462, 463, 465, 466, 471, 476, 483, 494, 506, 525, 540,
 161:main.c        ****     554, 571, 580, 588, 590, 588, 559, 547, 533, 523, 516, 507, 504, 499, 494,
 162:main.c        ****     492, 490, 488, 485, 480, 476, 472, 467, 463, 461, 461, 461, 465, 468, 472,
 163:main.c        ****     474, 478, 479, 480, 480, 479, 477, 475, 478, 478, 488, 489, 487, 485, 480,
 164:main.c        ****     477, 472, 469, 465, 460, 457, 456, 454, 453, 452, 452, 451, 451, 453, 452,
 165:main.c        ****     453, 454, 455, 455, 455, 455, 454, 454, 454, 450, 433, 426, 426, 427, 430,
 166:main.c        ****     433, 438, 442, 447, 450, 453, 456, 459, 461, 461, 462, 462, 463, 462, 462,
 167:main.c        ****     463, 463, 465, 467, 472, 477, 490, 501, 520, 536, 556, 572, 601, 622, 628,
 168:main.c        ****     629, 624, 615, 600, 586, 567, 555, 543, 527, 519, 509, 502, 496, 489, 483,
 169:main.c        ****     475, 470, 466, 463, 462, 463, 463, 465, 470, 472, 474, 476, 477, 474, 457,
 170:main.c        ****     449, 445, 444, 445, 447, 448, 449, 451, 452, 454, 456, 457, 459, 461, 461,
 171:main.c        ****     462, 461, 459, 459, 459, 457, 457, 455, 455, 456, 455, 456, 455, 456, 457,
 172:main.c        ****     460, 464, 471, 482, 486, 488, 486, 484, 482, 478, 474, 470, 467, 465, 461,
 173:main.c        ****     459, 456, 453, 452, 451, 449, 449, 449, 449, 451, 454, 455, 459, 461, 465,
 174:main.c        ****     472, 479, 486, 483, 493, 511, 527, 546, 558, 569, 576, 579, 577, 572, 565,
 175:main.c        ****     555, 546, 534, 527, 519, 511, 502, 497, 493, 487, 480, 475, 471, 467, 465,
 176:main.c        ****     464, 466, 467, 472, 475, 500, 508, 512, 512, 509, 504, 499, 494, 487, 483,
 177:main.c        ****     479, 473, 470, 467, 465, 464, 464, 464, 465, 466, 468, 470, 473, 472, 474,
 178:main.c        ****     475, 474, 474, 474, 472, 471, 467, 444, 439, 436, 436, 438, 441, 445, 449,
 179:main.c        ****     454, 458, 463, 466, 468, 470, 471, 472, 472, 471, 470, 469, 468, 467, 465,
 180:main.c        ****     464, 464, 463, 462, 463, 463, 464, 466, 471, 481, 493, 513, 534, 548, 561,
 181:main.c        ****     576, 587, 595, 598, 598, 594, 587, 577, 567, 553, 543, 532, 521, 514, 510,
 182:main.c        ****     504, 500, 494, 491, 487, 482, 478, 474, 470, 469, 466, 450, 445, 447, 452,
 183:main.c        ****     457, 462, 468, 473, 478, 480, 482, 483, 482, 480, 479, 476, 474, 473, 471,
 184:main.c        ****     470, 468, 466, 466, 466, 466, 467, 466, 467, 467, 469, 469, 470, 491, 496,
 185:main.c        ****     497, 494, 491, 486, 482, 478, 472, 469, 465, 463, 461, 459, 458, 458, 458,
 186:main.c        ****     457, 458, 458, 459, 459, 459, 459, 460, 460, 460, 460, 460, 460, 459, 455,
 187:main.c        ****     440, 433, 434, 440, 445, 455, 472, 487, 504, 527, 545, 566, 579, 588, 595,
 188:main.c        ****     596};
 189:main.c        **** #endif
 190:main.c        **** /*****************************************************************************/
 191:main.c        **** /*   Ihr Programm                                                            */
 192:main.c        **** /*****************************************************************************/
 193:main.c        **** #define true 1
 194:main.c        **** #define false 0
 195:main.c        **** 
 196:main.c        **** struct {
 197:main.c        ****   uint16_t ad_buf[128];
 198:main.c        ****   int ad_idx;
 199:main.c        ****   int bpm_idx;
 200:main.c        ****   int ad_sum;
 201:main.c        ****   int bpm_sum;
 202:main.c        ****   int ad_avg;
 203:main.c        ****   int bpm_avg;
 204:main.c        ****   uint16_t prev_bpm[16];
 205:main.c        ****   uint32_t prev_beat;
 206:main.c        ****   uint32_t begin;
 207:main.c        ****   uint32_t end;
 208:main.c        ****   _Bool onBeat;
 209:main.c        **** 
 210:main.c        **** } h = {
 211:main.c        ****     .ad_buf = {0},
 212:main.c        ****     .ad_idx = 0,
 213:main.c        ****     .ad_sum = 0,
 214:main.c        ****     .ad_avg = 0,
 215:main.c        ****     .prev_bpm = {0},
 216:main.c        ****     .bpm_idx = 0,
 217:main.c        ****     .bpm_sum = 0,
 218:main.c        ****     .bpm_avg = 0,
 219:main.c        ****     .prev_beat = 0,
 220:main.c        ****     .begin = 0,
 221:main.c        ****     .end = 0,
 222:main.c        ****     .onBeat = false,
 223:main.c        **** };
 224:main.c        **** 
 225:main.c        **** //>0 ermittelter Herzschlag =0 kein neuer Herzschlag <0 Fehler
 226:main.c        **** int herzschlag_process(int32_t ad) {
 785              		.loc 1 226 36
 786              		.cfi_startproc
 787              		@ Function supports interworking.
 788              		@ args = 0, pretend = 0, frame = 24
 789              		@ frame_needed = 1, uses_anonymous_args = 0
 790 0000 00482DE9 		push	{fp, lr}
 791              		.cfi_def_cfa_offset 8
 792              		.cfi_offset 11, -8
 793              		.cfi_offset 14, -4
 794 0004 04B08DE2 		add	fp, sp, #4
 795              		.cfi_def_cfa 11, 4
 796 0008 18D04DE2 		sub	sp, sp, #24
 797 000c 18000BE5 		str	r0, [fp, #-24]
 227:main.c        ****   trace_scope(0, ad);
 798              		.loc 1 227 3
 799 0010 18301BE5 		ldr	r3, [fp, #-24]
 800 0014 0338A0E1 		lsl	r3, r3, #16
 801 0018 4338A0E1 		asr	r3, r3, #16
 802 001c 0310A0E1 		mov	r1, r3
 803 0020 0000A0E3 		mov	r0, #0
 804 0024 60339FE5 		ldr	r3, .L57
 805 0028 0FE0A0E1 		mov	lr, pc
 806 002c 13FF2FE1 		bx	r3
 807              	.LVL5:
 228:main.c        **** 
 229:main.c        ****   // Ringbuffer
 230:main.c        ****   h.ad_sum += (ad - h.ad_buf[h.ad_idx]);
 808              		.loc 1 230 4
 809 0030 58339FE5 		ldr	r3, .L57+4
 810 0034 082193E5 		ldr	r2, [r3, #264]
 811              		.loc 1 230 31
 812 0038 50339FE5 		ldr	r3, .L57+4
 813 003c 003193E5 		ldr	r3, [r3, #256]
 814              		.loc 1 230 29
 815 0040 48139FE5 		ldr	r1, .L57+4
 816 0044 8330A0E1 		lsl	r3, r3, #1
 817 0048 033081E0 		add	r3, r1, r3
 818 004c B030D3E1 		ldrh	r3, [r3]
 819 0050 0310A0E1 		mov	r1, r3
 820              		.loc 1 230 19
 821 0054 18301BE5 		ldr	r3, [fp, #-24]
 822 0058 013043E0 		sub	r3, r3, r1
 823              		.loc 1 230 12
 824 005c 033082E0 		add	r3, r2, r3
 825 0060 28239FE5 		ldr	r2, .L57+4
 826 0064 083182E5 		str	r3, [r2, #264]
 231:main.c        ****   h.ad_buf[h.ad_idx] = (uint16_t)ad;
 827              		.loc 1 231 13
 828 0068 20339FE5 		ldr	r3, .L57+4
 829 006c 003193E5 		ldr	r3, [r3, #256]
 830              		.loc 1 231 24
 831 0070 18201BE5 		ldr	r2, [fp, #-24]
 832 0074 0228A0E1 		lsl	r2, r2, #16
 833 0078 2228A0E1 		lsr	r2, r2, #16
 834              		.loc 1 231 22
 835 007c 0C139FE5 		ldr	r1, .L57+4
 836 0080 8330A0E1 		lsl	r3, r3, #1
 837 0084 033081E0 		add	r3, r1, r3
 838 0088 B020C3E1 		strh	r2, [r3]	@ movhi
 232:main.c        ****   h.ad_idx = (h.ad_idx + 1) & 127;
 839              		.loc 1 232 16
 840 008c FC329FE5 		ldr	r3, .L57+4
 841 0090 003193E5 		ldr	r3, [r3, #256]
 842              		.loc 1 232 24
 843 0094 013083E2 		add	r3, r3, #1
 844              		.loc 1 232 29
 845 0098 7F3003E2 		and	r3, r3, #127
 846              		.loc 1 232 12
 847 009c EC229FE5 		ldr	r2, .L57+4
 848 00a0 003182E5 		str	r3, [r2, #256]
 233:main.c        **** 
 234:main.c        ****   // floating average
 235:main.c        ****   h.ad_avg = (h.ad_sum >> 7) + (h.ad_avg >> 2) - 20;
 849              		.loc 1 235 16
 850 00a4 E4329FE5 		ldr	r3, .L57+4
 851 00a8 083193E5 		ldr	r3, [r3, #264]
 852              		.loc 1 235 24
 853 00ac C323A0E1 		asr	r2, r3, #7
 854              		.loc 1 235 34
 855 00b0 D8329FE5 		ldr	r3, .L57+4
 856 00b4 103193E5 		ldr	r3, [r3, #272]
 857              		.loc 1 235 42
 858 00b8 4331A0E1 		asr	r3, r3, #2
 859              		.loc 1 235 30
 860 00bc 033082E0 		add	r3, r2, r3
 861              		.loc 1 235 48
 862 00c0 143043E2 		sub	r3, r3, #20
 863              		.loc 1 235 12
 864 00c4 C4229FE5 		ldr	r2, .L57+4
 865 00c8 103182E5 		str	r3, [r2, #272]
 236:main.c        ****   trace_scope(1, h.ad_avg);
 866              		.loc 1 236 19
 867 00cc BC329FE5 		ldr	r3, .L57+4
 868 00d0 103193E5 		ldr	r3, [r3, #272]
 869              		.loc 1 236 3
 870 00d4 0338A0E1 		lsl	r3, r3, #16
 871 00d8 4338A0E1 		asr	r3, r3, #16
 872 00dc 0310A0E1 		mov	r1, r3
 873 00e0 0100A0E3 		mov	r0, #1
 874 00e4 A0329FE5 		ldr	r3, .L57
 875 00e8 0FE0A0E1 		mov	lr, pc
 876 00ec 13FF2FE1 		bx	r3
 877              	.LVL6:
 237:main.c        **** 
 238:main.c        ****   // Average not set
 239:main.c        ****   if (h.ad_avg < 350) {
 878              		.loc 1 239 8
 879 00f0 98329FE5 		ldr	r3, .L57+4
 880 00f4 103193E5 		ldr	r3, [r3, #272]
 881              		.loc 1 239 6
 882 00f8 94229FE5 		ldr	r2, .L57+8
 883 00fc 020053E1 		cmp	r3, r2
 884 0100 010000CA 		bgt	.L46
 240:main.c        ****     return 0;
 885              		.loc 1 240 12
 886 0104 0030A0E3 		mov	r3, #0
 887 0108 9B0000EA 		b	.L47
 888              	.L46:
 241:main.c        ****   }
 242:main.c        ****   // AGC error
 243:main.c        ****   if (ad > (h.ad_avg << 1)) {
 889              		.loc 1 243 14
 890 010c 7C329FE5 		ldr	r3, .L57+4
 891 0110 103193E5 		ldr	r3, [r3, #272]
 892              		.loc 1 243 22
 893 0114 8330A0E1 		lsl	r3, r3, #1
 894              		.loc 1 243 6
 895 0118 18201BE5 		ldr	r2, [fp, #-24]
 896 011c 030052E1 		cmp	r2, r3
 897 0120 010000DA 		ble	.L48
 244:main.c        ****     return 0;
 898              		.loc 1 244 12
 899 0124 0030A0E3 		mov	r3, #0
 900 0128 930000EA 		b	.L47
 901              	.L48:
 245:main.c        ****   }
 246:main.c        **** 
 247:main.c        ****   // start of beat
 248:main.c        ****   if (ad > h.ad_avg && !h.onBeat) {
 902              		.loc 1 248 13
 903 012c 5C329FE5 		ldr	r3, .L57+4
 904 0130 103193E5 		ldr	r3, [r3, #272]
 905              		.loc 1 248 6
 906 0134 18201BE5 		ldr	r2, [fp, #-24]
 907 0138 030052E1 		cmp	r2, r3
 908 013c 100000DA 		ble	.L49
 909              		.loc 1 248 26 discriminator 1
 910 0140 48329FE5 		ldr	r3, .L57+4
 911 0144 4431D3E5 		ldrb	r3, [r3, #324]	@ zero_extendqisi2
 912              		.loc 1 248 24 discriminator 1
 913 0148 013023E2 		eor	r3, r3, #1
 914 014c FF3003E2 		and	r3, r3, #255
 915              		.loc 1 248 21 discriminator 1
 916 0150 000053E3 		cmp	r3, #0
 917 0154 0A00000A 		beq	.L49
 249:main.c        ****     h.begin = systick_get_ms();
 918              		.loc 1 249 15
 919 0158 38329FE5 		ldr	r3, .L57+12
 920 015c 0FE0A0E1 		mov	lr, pc
 921 0160 13FF2FE1 		bx	r3
 922              	.LVL7:
 923 0164 0030A0E1 		mov	r3, r0
 924              		.loc 1 249 13 discriminator 1
 925 0168 20229FE5 		ldr	r2, .L57+4
 926 016c 3C3182E5 		str	r3, [r2, #316]
 250:main.c        ****     h.onBeat = true;
 927              		.loc 1 250 14
 928 0170 18329FE5 		ldr	r3, .L57+4
 929 0174 0120A0E3 		mov	r2, #1
 930 0178 4421C3E5 		strb	r2, [r3, #324]
 251:main.c        ****     return 0;
 931              		.loc 1 251 12
 932 017c 0030A0E3 		mov	r3, #0
 933 0180 7D0000EA 		b	.L47
 934              	.L49:
 252:main.c        ****   }
 253:main.c        **** 
 254:main.c        ****   // end of beat
 255:main.c        ****   if (ad < h.ad_avg && h.onBeat) {
 935              		.loc 1 255 13
 936 0184 04329FE5 		ldr	r3, .L57+4
 937 0188 103193E5 		ldr	r3, [r3, #272]
 938              		.loc 1 255 6
 939 018c 18201BE5 		ldr	r2, [fp, #-24]
 940 0190 030052E1 		cmp	r2, r3
 941 0194 770000AA 		bge	.L50
 942              		.loc 1 255 25 discriminator 1
 943 0198 F0319FE5 		ldr	r3, .L57+4
 944 019c 4431D3E5 		ldrb	r3, [r3, #324]	@ zero_extendqisi2
 945              		.loc 1 255 21 discriminator 1
 946 01a0 000053E3 		cmp	r3, #0
 947 01a4 7300000A 		beq	.L50
 948              	.LBB7:
 256:main.c        ****     h.end = systick_get_ms();
 949              		.loc 1 256 13
 950 01a8 E8319FE5 		ldr	r3, .L57+12
 951 01ac 0FE0A0E1 		mov	lr, pc
 952 01b0 13FF2FE1 		bx	r3
 953              	.LVL8:
 954 01b4 0030A0E1 		mov	r3, r0
 955              		.loc 1 256 11 discriminator 1
 956 01b8 D0219FE5 		ldr	r2, .L57+4
 957 01bc 403182E5 		str	r3, [r2, #320]
 257:main.c        ****     h.onBeat = false;
 958              		.loc 1 257 14
 959 01c0 C8319FE5 		ldr	r3, .L57+4
 960 01c4 0020A0E3 		mov	r2, #0
 961 01c8 4421C3E5 		strb	r2, [r3, #324]
 258:main.c        **** 
 259:main.c        ****     // timestamp of beat
 260:main.c        ****     uint32_t timestamp = h.begin + ((h.end - h.begin) >> 1);
 962              		.loc 1 260 27
 963 01cc BC319FE5 		ldr	r3, .L57+4
 964 01d0 3C2193E5 		ldr	r2, [r3, #316]
 965              		.loc 1 260 39
 966 01d4 B4319FE5 		ldr	r3, .L57+4
 967 01d8 401193E5 		ldr	r1, [r3, #320]
 968              		.loc 1 260 47
 969 01dc AC319FE5 		ldr	r3, .L57+4
 970 01e0 3C3193E5 		ldr	r3, [r3, #316]
 971              		.loc 1 260 44
 972 01e4 033041E0 		sub	r3, r1, r3
 973              		.loc 1 260 55
 974 01e8 A330A0E1 		lsr	r3, r3, #1
 975              		.loc 1 260 14
 976 01ec 033082E0 		add	r3, r2, r3
 977 01f0 08300BE5 		str	r3, [fp, #-8]
 261:main.c        **** 
 262:main.c        ****     // Wenn lastBeat == 0 --> erster gefundener Schlag: initialisiere und gib 0
 263:main.c        ****     // zurück
 264:main.c        ****     if (h.prev_beat == 0) {
 978              		.loc 1 264 10
 979 01f4 94319FE5 		ldr	r3, .L57+4
 980 01f8 383193E5 		ldr	r3, [r3, #312]
 981              		.loc 1 264 8
 982 01fc 000053E3 		cmp	r3, #0
 983 0200 0400001A 		bne	.L51
 265:main.c        ****       h.prev_beat = timestamp;
 984              		.loc 1 265 19
 985 0204 84219FE5 		ldr	r2, .L57+4
 986 0208 08301BE5 		ldr	r3, [fp, #-8]
 987 020c 383182E5 		str	r3, [r2, #312]
 266:main.c        ****       return 0;
 988              		.loc 1 266 14
 989 0210 0030A0E3 		mov	r3, #0
 990 0214 580000EA 		b	.L47
 991              	.L51:
 267:main.c        ****     }
 268:main.c        **** 
 269:main.c        ****     // time between beats
 270:main.c        ****     uint32_t t = timestamp - h.prev_beat;
 992              		.loc 1 270 31
 993 0218 70319FE5 		ldr	r3, .L57+4
 994 021c 383193E5 		ldr	r3, [r3, #312]
 995              		.loc 1 270 14
 996 0220 08201BE5 		ldr	r2, [fp, #-8]
 997 0224 033042E0 		sub	r3, r2, r3
 998 0228 0C300BE5 		str	r3, [fp, #-12]
 271:main.c        ****     if (t == 0) {
 999              		.loc 1 271 8
 1000 022c 0C301BE5 		ldr	r3, [fp, #-12]
 1001 0230 000053E3 		cmp	r3, #0
 1002 0234 0400001A 		bne	.L52
 272:main.c        ****       h.prev_beat = timestamp;
 1003              		.loc 1 272 19
 1004 0238 50219FE5 		ldr	r2, .L57+4
 1005 023c 08301BE5 		ldr	r3, [fp, #-8]
 1006 0240 383182E5 		str	r3, [r2, #312]
 273:main.c        ****       return 0;
 1007              		.loc 1 273 14
 1008 0244 0030A0E3 		mov	r3, #0
 1009 0248 4B0000EA 		b	.L47
 1010              	.L52:
 274:main.c        ****     }
 275:main.c        **** 
 276:main.c        ****     h.prev_beat = timestamp;
 1011              		.loc 1 276 17
 1012 024c 3C219FE5 		ldr	r2, .L57+4
 1013 0250 08301BE5 		ldr	r3, [fp, #-8]
 1014 0254 383182E5 		str	r3, [r2, #312]
 277:main.c        **** 
 278:main.c        ****     /* BPM: 1000 ms / t (ms per beat) * 60 */
 279:main.c        ****     //((120000/t) +1) >>1
 280:main.c        ****     int bpm = 60000 / t;
 1015              		.loc 1 280 21
 1016 0258 3C319FE5 		ldr	r3, .L57+16
 1017 025c 0C101BE5 		ldr	r1, [fp, #-12]
 1018 0260 38019FE5 		ldr	r0, .L57+20
 1019 0264 0FE0A0E1 		mov	lr, pc
 1020 0268 13FF2FE1 		bx	r3
 1021              	.LVL9:
 1022 026c 0030A0E1 		mov	r3, r0
 1023              		.loc 1 280 9
 1024 0270 10300BE5 		str	r3, [fp, #-16]
 281:main.c        **** 
 282:main.c        ****     if (bpm < 50 || bpm > 200) {
 1025              		.loc 1 282 8
 1026 0274 10301BE5 		ldr	r3, [fp, #-16]
 1027 0278 310053E3 		cmp	r3, #49
 1028 027c 020000DA 		ble	.L53
 1029              		.loc 1 282 18 discriminator 1
 1030 0280 10301BE5 		ldr	r3, [fp, #-16]
 1031 0284 C80053E3 		cmp	r3, #200
 1032 0288 010000DA 		ble	.L54
 1033              	.L53:
 283:main.c        ****       return 0;
 1034              		.loc 1 283 14
 1035 028c 0030A0E3 		mov	r3, #0
 1036 0290 390000EA 		b	.L47
 1037              	.L54:
 284:main.c        ****     }
 285:main.c        **** 
 286:main.c        ****     // Ringbuffer bpm
 287:main.c        ****     h.bpm_sum += (bpm - h.prev_bpm[h.bpm_idx]);
 1038              		.loc 1 287 6
 1039 0294 F4309FE5 		ldr	r3, .L57+4
 1040 0298 0C2193E5 		ldr	r2, [r3, #268]
 1041              		.loc 1 287 37
 1042 029c EC309FE5 		ldr	r3, .L57+4
 1043 02a0 043193E5 		ldr	r3, [r3, #260]
 1044              		.loc 1 287 35
 1045 02a4 E4109FE5 		ldr	r1, .L57+4
 1046 02a8 8C3083E2 		add	r3, r3, #140
 1047 02ac 8330A0E1 		lsl	r3, r3, #1
 1048 02b0 033081E0 		add	r3, r1, r3
 1049 02b4 B030D3E1 		ldrh	r3, [r3]
 1050 02b8 0310A0E1 		mov	r1, r3
 1051              		.loc 1 287 23
 1052 02bc 10301BE5 		ldr	r3, [fp, #-16]
 1053 02c0 013043E0 		sub	r3, r3, r1
 1054              		.loc 1 287 15
 1055 02c4 033082E0 		add	r3, r2, r3
 1056 02c8 C0209FE5 		ldr	r2, .L57+4
 1057 02cc 0C3182E5 		str	r3, [r2, #268]
 288:main.c        ****     h.prev_bpm[h.bpm_idx] = (uint16_t)bpm;
 1058              		.loc 1 288 17
 1059 02d0 B8309FE5 		ldr	r3, .L57+4
 1060 02d4 043193E5 		ldr	r3, [r3, #260]
 1061              		.loc 1 288 29
 1062 02d8 10201BE5 		ldr	r2, [fp, #-16]
 1063 02dc 0228A0E1 		lsl	r2, r2, #16
 1064 02e0 2228A0E1 		lsr	r2, r2, #16
 1065              		.loc 1 288 27
 1066 02e4 A4109FE5 		ldr	r1, .L57+4
 1067 02e8 8C3083E2 		add	r3, r3, #140
 1068 02ec 8330A0E1 		lsl	r3, r3, #1
 1069 02f0 033081E0 		add	r3, r1, r3
 1070 02f4 B020C3E1 		strh	r2, [r3]	@ movhi
 289:main.c        ****     h.bpm_idx = (h.bpm_idx + 1) & 15;
 1071              		.loc 1 289 19
 1072 02f8 90309FE5 		ldr	r3, .L57+4
 1073 02fc 043193E5 		ldr	r3, [r3, #260]
 1074              		.loc 1 289 28
 1075 0300 013083E2 		add	r3, r3, #1
 1076              		.loc 1 289 33
 1077 0304 0F3003E2 		and	r3, r3, #15
 1078              		.loc 1 289 15
 1079 0308 80209FE5 		ldr	r2, .L57+4
 1080 030c 043182E5 		str	r3, [r2, #260]
 290:main.c        **** 
 291:main.c        ****     // floating average bpm
 292:main.c        ****     h.bpm_avg = (h.bpm_sum >> 4);
 1081              		.loc 1 292 19
 1082 0310 78309FE5 		ldr	r3, .L57+4
 1083 0314 0C3193E5 		ldr	r3, [r3, #268]
 1084              		.loc 1 292 28
 1085 0318 4332A0E1 		asr	r3, r3, #4
 1086              		.loc 1 292 15
 1087 031c 6C209FE5 		ldr	r2, .L57+4
 1088 0320 143182E5 		str	r3, [r2, #276]
 293:main.c        **** 
 294:main.c        ****     // printf("BPM: %d\n", bpm);
 295:main.c        ****     // printf("AVG: %d\n", h.bpm_avg);
 296:main.c        **** 
 297:main.c        ****     if (bpm > (h.bpm_avg + 10) || bpm < (h.bpm_avg - 10))
 1089              		.loc 1 297 17
 1090 0324 64309FE5 		ldr	r3, .L57+4
 1091 0328 143193E5 		ldr	r3, [r3, #276]
 1092              		.loc 1 297 26
 1093 032c 0A3083E2 		add	r3, r3, #10
 1094              		.loc 1 297 8
 1095 0330 10201BE5 		ldr	r2, [fp, #-16]
 1096 0334 030052E1 		cmp	r2, r3
 1097 0338 050000CA 		bgt	.L55
 1098              		.loc 1 297 43 discriminator 1
 1099 033c 4C309FE5 		ldr	r3, .L57+4
 1100 0340 143193E5 		ldr	r3, [r3, #276]
 1101              		.loc 1 297 52 discriminator 1
 1102 0344 0A3043E2 		sub	r3, r3, #10
 1103              		.loc 1 297 32 discriminator 1
 1104 0348 10201BE5 		ldr	r2, [fp, #-16]
 1105 034c 030052E1 		cmp	r2, r3
 1106 0350 010000AA 		bge	.L56
 1107              	.L55:
 298:main.c        ****       return 0;
 1108              		.loc 1 298 14
 1109 0354 0030A0E3 		mov	r3, #0
 1110 0358 070000EA 		b	.L47
 1111              	.L56:
 299:main.c        **** 
 300:main.c        ****     printf("Real BPM: %d\n", bpm);
 1112              		.loc 1 300 5
 1113 035c 10101BE5 		ldr	r1, [fp, #-16]
 1114 0360 3C009FE5 		ldr	r0, .L57+24
 1115 0364 3C309FE5 		ldr	r3, .L57+28
 1116 0368 0FE0A0E1 		mov	lr, pc
 1117 036c 13FF2FE1 		bx	r3
 1118              	.LVL10:
 301:main.c        **** 
 302:main.c        ****     return bpm;
 1119              		.loc 1 302 12
 1120 0370 10301BE5 		ldr	r3, [fp, #-16]
 1121 0374 000000EA 		b	.L47
 1122              	.L50:
 1123              	.LBE7:
 303:main.c        ****   }
 304:main.c        **** 
 305:main.c        ****   return 0;
 1124              		.loc 1 305 10
 1125 0378 0030A0E3 		mov	r3, #0
 1126              	.L47:
 306:main.c        **** }
 1127              		.loc 1 306 1
 1128 037c 0300A0E1 		mov	r0, r3
 1129 0380 04D04BE2 		sub	sp, fp, #4
 1130              		.cfi_def_cfa 13, 8
 1131              		@ sp needed
 1132 0384 0048BDE8 		pop	{fp, lr}
 1133              		.cfi_restore 14
 1134              		.cfi_restore 11
 1135              		.cfi_def_cfa_offset 0
 1136 0388 1EFF2FE1 		bx	lr
 1137              	.L58:
 1138              		.align	2
 1139              	.L57:
 1140 038c 00000000 		.word	trace_scope
 1141 0390 00000000 		.word	h
 1142 0394 5D010000 		.word	349
 1143 0398 00000000 		.word	systick_get_ms
 1144 039c 00000000 		.word	__aeabi_uidiv
 1145 03a0 60EA0000 		.word	60000
 1146 03a4 00000000 		.word	.LC0
 1147 03a8 00000000 		.word	printf
 1148              		.cfi_endproc
 1149              	.LFE17:
 1151              		.section	.text.task_8ms,"ax",%progbits
 1152              		.align	2
 1153              		.global	task_8ms
 1154              		.syntax unified
 1155              		.arm
 1157              	task_8ms:
 1158              	.LFB18:
 307:main.c        **** 
 308:main.c        **** #ifdef NXT
 309:main.c        **** /*****************************************************************************/
 310:main.c        **** /*   Hilfsroutinen                                                           */
 311:main.c        **** /*****************************************************************************/
 312:main.c        **** void task_8ms(void) {
 1159              		.loc 1 312 21
 1160              		.cfi_startproc
 1161              		@ Function supports interworking.
 1162              		@ args = 0, pretend = 0, frame = 0
 1163              		@ frame_needed = 1, uses_anonymous_args = 0
 1164 0000 00482DE9 		push	{fp, lr}
 1165              		.cfi_def_cfa_offset 8
 1166              		.cfi_offset 11, -8
 1167              		.cfi_offset 14, -4
 1168 0004 04B08DE2 		add	fp, sp, #4
 1169              		.cfi_def_cfa 11, 4
 313:main.c        ****   // Keine blockierende Aufrufe
 314:main.c        ****   // Max. Bearbeitungsdauer: ZYKLUS_MS
 315:main.c        **** #ifdef MODE_SIM
 316:main.c        ****   (void)herzschlag_process(simuli[simuli_idx++]);
 317:main.c        ****   simuli_idx = simuli_idx % (sizeof(simuli) / sizeof(simuli[0]));
 318:main.c        **** #else
 319:main.c        ****   (void)herzschlag_process(nxt_avr_get_sensor_adc_raw(HERZSCHLAG_PORT));
 1170              		.loc 1 319 28
 1171 0008 0100A0E3 		mov	r0, #1
 1172 000c 28309FE5 		ldr	r3, .L60
 1173 0010 0FE0A0E1 		mov	lr, pc
 1174 0014 13FF2FE1 		bx	r3
 1175              	.LVL11:
 1176 0018 0030A0E1 		mov	r3, r0
 1177              		.loc 1 319 9 discriminator 1
 1178 001c 0300A0E1 		mov	r0, r3
 1179 0020 18309FE5 		ldr	r3, .L60+4
 1180 0024 0FE0A0E1 		mov	lr, pc
 1181 0028 13FF2FE1 		bx	r3
 1182              	.LVL12:
 320:main.c        **** #endif
 321:main.c        **** }
 1183              		.loc 1 321 1
 1184 002c 0000A0E1 		nop
 1185 0030 04D04BE2 		sub	sp, fp, #4
 1186              		.cfi_def_cfa 13, 8
 1187              		@ sp needed
 1188 0034 0048BDE8 		pop	{fp, lr}
 1189              		.cfi_restore 14
 1190              		.cfi_restore 11
 1191              		.cfi_def_cfa_offset 0
 1192 0038 1EFF2FE1 		bx	lr
 1193              	.L61:
 1194              		.align	2
 1195              	.L60:
 1196 003c 00000000 		.word	nxt_avr_get_sensor_adc_raw
 1197 0040 00000000 		.word	herzschlag_process
 1198              		.cfi_endproc
 1199              	.LFE18:
 1201              		.section	.text.task_16ms,"ax",%progbits
 1202              		.align	2
 1203              		.global	task_16ms
 1204              		.syntax unified
 1205              		.arm
 1207              	task_16ms:
 1208              	.LFB19:
 322:main.c        **** 
 323:main.c        **** void task_16ms(void) {
 1209              		.loc 1 323 22
 1210              		.cfi_startproc
 1211              		@ Function supports interworking.
 1212              		@ args = 0, pretend = 0, frame = 0
 1213              		@ frame_needed = 1, uses_anonymous_args = 0
 1214              		@ link register save eliminated.
 1215 0000 04B02DE5 		str	fp, [sp, #-4]!
 1216              		.cfi_def_cfa_offset 4
 1217              		.cfi_offset 11, -4
 1218 0004 00B08DE2 		add	fp, sp, #0
 1219              		.cfi_def_cfa_register 11
 324:main.c        ****   // Keine blockierende Aufrufe
 325:main.c        ****   // Max. Bearbeitungsdauer: ZYKLUS_MS
 326:main.c        **** }
 1220              		.loc 1 326 1
 1221 0008 0000A0E1 		nop
 1222 000c 00D08BE2 		add	sp, fp, #0
 1223              		.cfi_def_cfa_register 13
 1224              		@ sp needed
 1225 0010 04B09DE4 		ldr	fp, [sp], #4
 1226              		.cfi_restore 11
 1227              		.cfi_def_cfa_offset 0
 1228 0014 1EFF2FE1 		bx	lr
 1229              		.cfi_endproc
 1230              	.LFE19:
 1232              		.section	.text.task_32ms,"ax",%progbits
 1233              		.align	2
 1234              		.global	task_32ms
 1235              		.syntax unified
 1236              		.arm
 1238              	task_32ms:
 1239              	.LFB20:
 327:main.c        **** void task_32ms(void) {
 1240              		.loc 1 327 22
 1241              		.cfi_startproc
 1242              		@ Function supports interworking.
 1243              		@ args = 0, pretend = 0, frame = 0
 1244              		@ frame_needed = 1, uses_anonymous_args = 0
 1245              		@ link register save eliminated.
 1246 0000 04B02DE5 		str	fp, [sp, #-4]!
 1247              		.cfi_def_cfa_offset 4
 1248              		.cfi_offset 11, -4
 1249 0004 00B08DE2 		add	fp, sp, #0
 1250              		.cfi_def_cfa_register 11
 328:main.c        ****   // Keine blockierende Aufrufe
 329:main.c        ****   // Max. Bearbeitungsdauer: ZYKLUS_MS
 330:main.c        **** }
 1251              		.loc 1 330 1
 1252 0008 0000A0E1 		nop
 1253 000c 00D08BE2 		add	sp, fp, #0
 1254              		.cfi_def_cfa_register 13
 1255              		@ sp needed
 1256 0010 04B09DE4 		ldr	fp, [sp], #4
 1257              		.cfi_restore 11
 1258              		.cfi_def_cfa_offset 0
 1259 0014 1EFF2FE1 		bx	lr
 1260              		.cfi_endproc
 1261              	.LFE20:
 1263              		.section	.text.task_64ms,"ax",%progbits
 1264              		.align	2
 1265              		.global	task_64ms
 1266              		.syntax unified
 1267              		.arm
 1269              	task_64ms:
 1270              	.LFB21:
 331:main.c        **** void task_64ms(void) {
 1271              		.loc 1 331 22
 1272              		.cfi_startproc
 1273              		@ Function supports interworking.
 1274              		@ args = 0, pretend = 0, frame = 0
 1275              		@ frame_needed = 1, uses_anonymous_args = 0
 1276              		@ link register save eliminated.
 1277 0000 04B02DE5 		str	fp, [sp, #-4]!
 1278              		.cfi_def_cfa_offset 4
 1279              		.cfi_offset 11, -4
 1280 0004 00B08DE2 		add	fp, sp, #0
 1281              		.cfi_def_cfa_register 11
 332:main.c        ****   // Keine blockierende Aufrufe
 333:main.c        ****   // Max. Bearbeitungsdauer: ZYKLUS_MS
 334:main.c        **** }
 1282              		.loc 1 334 1
 1283 0008 0000A0E1 		nop
 1284 000c 00D08BE2 		add	sp, fp, #0
 1285              		.cfi_def_cfa_register 13
 1286              		@ sp needed
 1287 0010 04B09DE4 		ldr	fp, [sp], #4
 1288              		.cfi_restore 11
 1289              		.cfi_def_cfa_offset 0
 1290 0014 1EFF2FE1 		bx	lr
 1291              		.cfi_endproc
 1292              	.LFE21:
 1294              		.section	.text.task_128ms,"ax",%progbits
 1295              		.align	2
 1296              		.global	task_128ms
 1297              		.syntax unified
 1298              		.arm
 1300              	task_128ms:
 1301              	.LFB22:
 335:main.c        **** 
 336:main.c        **** void task_128ms(void) {
 1302              		.loc 1 336 23
 1303              		.cfi_startproc
 1304              		@ Function supports interworking.
 1305              		@ args = 0, pretend = 0, frame = 0
 1306              		@ frame_needed = 1, uses_anonymous_args = 0
 1307              		@ link register save eliminated.
 1308 0000 04B02DE5 		str	fp, [sp, #-4]!
 1309              		.cfi_def_cfa_offset 4
 1310              		.cfi_offset 11, -4
 1311 0004 00B08DE2 		add	fp, sp, #0
 1312              		.cfi_def_cfa_register 11
 337:main.c        ****   // Keine blockierende Aufrufe
 338:main.c        ****   // Max. Bearbeitungsdauer: ZYKLUS_MS
 339:main.c        **** }
 1313              		.loc 1 339 1
 1314 0008 0000A0E1 		nop
 1315 000c 00D08BE2 		add	sp, fp, #0
 1316              		.cfi_def_cfa_register 13
 1317              		@ sp needed
 1318 0010 04B09DE4 		ldr	fp, [sp], #4
 1319              		.cfi_restore 11
 1320              		.cfi_def_cfa_offset 0
 1321 0014 1EFF2FE1 		bx	lr
 1322              		.cfi_endproc
 1323              	.LFE22:
 1325              		.section	.rodata
 1326 000e 0000     		.align	2
 1327              	.LC1:
 1328 0010 53303A00 		.ascii	"S0:\000"
 1329              		.align	2
 1330              	.LC2:
 1331 0014 4261743A 		.ascii	"Bat:\000"
 1331      00
 1332 0019 000000   		.align	2
 1333              	.LC3:
 1334 001c 6D5600   		.ascii	"mV\000"
 1335 001f 00       		.align	2
 1336              	.LC4:
 1337 0020 4275743A 		.ascii	"But: \000"
 1337      2000
 1338 0026 0000     		.align	2
 1339              	.LC5:
 1340 0028 54696D65 		.ascii	"Time: \000"
 1340      3A2000
 1341 002f 00       		.align	2
 1342              	.LC6:
 1343 0030 7300     		.ascii	"s\000"
 1344              		.section	.text.task_256ms,"ax",%progbits
 1345              		.align	2
 1346              		.global	task_256ms
 1347              		.syntax unified
 1348              		.arm
 1350              	task_256ms:
 1351              	.LFB23:
 340:main.c        **** void task_256ms(void) {
 1352              		.loc 1 340 23
 1353              		.cfi_startproc
 1354              		@ Function supports interworking.
 1355              		@ args = 0, pretend = 0, frame = 0
 1356              		@ frame_needed = 1, uses_anonymous_args = 0
 1357 0000 00482DE9 		push	{fp, lr}
 1358              		.cfi_def_cfa_offset 8
 1359              		.cfi_offset 11, -8
 1360              		.cfi_offset 14, -4
 1361 0004 04B08DE2 		add	fp, sp, #4
 1362              		.cfi_def_cfa 11, 4
 341:main.c        ****   // Keine blockierende Aufrufe
 342:main.c        ****   // Max. Bearbeitungsdauer: ZYKLUS_MS
 343:main.c        **** 
 344:main.c        ****   // Beispielanwendung für MotorPos,Sensor,Batterie und NXT-Tasten
 345:main.c        ****   // Im Simulationsmodus kann im 'Per'-Fenster Werte vorgegeben werden
 346:main.c        ****   // Beispiel zur Abfrage des anlogen Eingangs am SensorPort 1
 347:main.c        ****   display_string("S0:");
 1363              		.loc 1 347 3
 1364 0008 2C029FE5 		ldr	r0, .L75
 1365 000c 2C329FE5 		ldr	r3, .L75+4
 1366 0010 0FE0A0E1 		mov	lr, pc
 1367 0014 13FF2FE1 		bx	r3
 1368              	.LVL13:
 348:main.c        ****   display_hex((uint32_t)nxt_avr_get_sensor_adc_raw(SENSOR_1),
 1369              		.loc 1 348 25
 1370 0018 0000A0E3 		mov	r0, #0
 1371 001c 20329FE5 		ldr	r3, .L75+8
 1372 0020 0FE0A0E1 		mov	lr, pc
 1373 0024 13FF2FE1 		bx	r3
 1374              	.LVL14:
 1375 0028 0030A0E1 		mov	r3, r0
 1376              		.loc 1 348 3 discriminator 1
 1377 002c 0310A0E3 		mov	r1, #3
 1378 0030 0300A0E1 		mov	r0, r3
 1379 0034 0C329FE5 		ldr	r3, .L75+12
 1380 0038 0FE0A0E1 		mov	lr, pc
 1381 003c 13FF2FE1 		bx	r3
 1382              	.LVL15:
 349:main.c        ****               3); // PER: NXT_AVR_ADC_1
 350:main.c        ****   // Beispiel zur Abfrage der Batteriespannung
 351:main.c        ****   display_goto_xy(0, 3);
 1383              		.loc 1 351 3
 1384 0040 0310A0E3 		mov	r1, #3
 1385 0044 0000A0E3 		mov	r0, #0
 1386 0048 FC319FE5 		ldr	r3, .L75+16
 1387 004c 0FE0A0E1 		mov	lr, pc
 1388 0050 13FF2FE1 		bx	r3
 1389              	.LVL16:
 352:main.c        ****   display_string("Bat:");
 1390              		.loc 1 352 3
 1391 0054 F4019FE5 		ldr	r0, .L75+20
 1392 0058 E0319FE5 		ldr	r3, .L75+4
 1393 005c 0FE0A0E1 		mov	lr, pc
 1394 0060 13FF2FE1 		bx	r3
 1395              	.LVL17:
 353:main.c        ****   display_unsigned(nxt_avr_get_battery_mv(),
 1396              		.loc 1 353 20
 1397 0064 E8319FE5 		ldr	r3, .L75+24
 1398 0068 0FE0A0E1 		mov	lr, pc
 1399 006c 13FF2FE1 		bx	r3
 1400              	.LVL18:
 1401 0070 0030A0E1 		mov	r3, r0
 1402              		.loc 1 353 3 discriminator 1
 1403 0074 0510A0E3 		mov	r1, #5
 1404 0078 0300A0E1 		mov	r0, r3
 1405 007c D4319FE5 		ldr	r3, .L75+28
 1406 0080 0FE0A0E1 		mov	lr, pc
 1407 0084 13FF2FE1 		bx	r3
 1408              	.LVL19:
 354:main.c        ****                    5); // über AVR-Proz -> PER: NXT_AVR_BATTERY
 355:main.c        ****   //	display_unsigned(adc_get_usb_mv()         ,5);  //über SAM7-Proz
 356:main.c        ****   display_string("mV");
 1409              		.loc 1 356 3
 1410 0088 CC019FE5 		ldr	r0, .L75+32
 1411 008c AC319FE5 		ldr	r3, .L75+4
 1412 0090 0FE0A0E1 		mov	lr, pc
 1413 0094 13FF2FE1 		bx	r3
 1414              	.LVL20:
 357:main.c        ****   // Beispiel zur Abfrage der NXT-Tasten
 358:main.c        ****   display_goto_xy(0, 4);
 1415              		.loc 1 358 3
 1416 0098 0410A0E3 		mov	r1, #4
 1417 009c 0000A0E3 		mov	r0, #0
 1418 00a0 A4319FE5 		ldr	r3, .L75+16
 1419 00a4 0FE0A0E1 		mov	lr, pc
 1420 00a8 13FF2FE1 		bx	r3
 1421              	.LVL21:
 359:main.c        ****   display_string("But: ");
 1422              		.loc 1 359 3
 1423 00ac AC019FE5 		ldr	r0, .L75+36
 1424 00b0 88319FE5 		ldr	r3, .L75+4
 1425 00b4 0FE0A0E1 		mov	lr, pc
 1426 00b8 13FF2FE1 		bx	r3
 1427              	.LVL22:
 360:main.c        ****   display_char(nxt_avr_get_buttons().orange ? 'O' : '-');
 1428              		.loc 1 360 16
 1429 00bc A0319FE5 		ldr	r3, .L75+40
 1430 00c0 0FE0A0E1 		mov	lr, pc
 1431 00c4 13FF2FE1 		bx	r3
 1432              	.LVL23:
 1433 00c8 0030A0E1 		mov	r3, r0
 1434              		.loc 1 360 45 discriminator 1
 1435 00cc FF3003E2 		and	r3, r3, #255
 1436 00d0 013003E2 		and	r3, r3, #1
 1437 00d4 FF3003E2 		and	r3, r3, #255
 1438              		.loc 1 360 3 discriminator 1
 1439 00d8 000053E3 		cmp	r3, #0
 1440 00dc 0100000A 		beq	.L67
 1441 00e0 4F30A0E3 		mov	r3, #79
 1442 00e4 000000EA 		b	.L68
 1443              	.L67:
 1444              		.loc 1 360 3 is_stmt 0 discriminator 2
 1445 00e8 2D30A0E3 		mov	r3, #45
 1446              	.L68:
 1447              		.loc 1 360 3 discriminator 4
 1448 00ec 0300A0E1 		mov	r0, r3
 1449 00f0 70319FE5 		ldr	r3, .L75+44
 1450 00f4 0FE0A0E1 		mov	lr, pc
 1451 00f8 13FF2FE1 		bx	r3
 1452              	.LVL24:
 361:main.c        ****   display_char(nxt_avr_get_buttons().left ? 'L'
 1453              		.loc 1 361 16 is_stmt 1
 1454 00fc 60319FE5 		ldr	r3, .L75+40
 1455 0100 0FE0A0E1 		mov	lr, pc
 1456 0104 13FF2FE1 		bx	r3
 1457              	.LVL25:
 1458 0108 0030A0E1 		mov	r3, r0
 1459              		.loc 1 361 43 discriminator 1
 1460 010c FF3003E2 		and	r3, r3, #255
 1461 0110 023003E2 		and	r3, r3, #2
 1462 0114 FF3003E2 		and	r3, r3, #255
 1463              		.loc 1 361 3 discriminator 1
 1464 0118 000053E3 		cmp	r3, #0
 1465 011c 0100000A 		beq	.L69
 1466 0120 4C30A0E3 		mov	r3, #76
 1467 0124 000000EA 		b	.L70
 1468              	.L69:
 1469              		.loc 1 361 3 is_stmt 0 discriminator 2
 1470 0128 2D30A0E3 		mov	r3, #45
 1471              	.L70:
 1472              		.loc 1 361 3 discriminator 4
 1473 012c 0300A0E1 		mov	r0, r3
 1474 0130 30319FE5 		ldr	r3, .L75+44
 1475 0134 0FE0A0E1 		mov	lr, pc
 1476 0138 13FF2FE1 		bx	r3
 1477              	.LVL26:
 362:main.c        ****                                           : '-'); // Left/Right/Grey generien
 363:main.c        ****   display_char(nxt_avr_get_buttons().right ? 'R'
 1478              		.loc 1 363 16 is_stmt 1
 1479 013c 20319FE5 		ldr	r3, .L75+40
 1480 0140 0FE0A0E1 		mov	lr, pc
 1481 0144 13FF2FE1 		bx	r3
 1482              	.LVL27:
 1483 0148 0030A0E1 		mov	r3, r0
 1484              		.loc 1 363 44 discriminator 1
 1485 014c FF3003E2 		and	r3, r3, #255
 1486 0150 043003E2 		and	r3, r3, #4
 1487 0154 FF3003E2 		and	r3, r3, #255
 1488              		.loc 1 363 3 discriminator 1
 1489 0158 000053E3 		cmp	r3, #0
 1490 015c 0100000A 		beq	.L71
 1491 0160 5230A0E3 		mov	r3, #82
 1492 0164 000000EA 		b	.L72
 1493              	.L71:
 1494              		.loc 1 363 3 is_stmt 0 discriminator 2
 1495 0168 2D30A0E3 		mov	r3, #45
 1496              	.L72:
 1497              		.loc 1 363 3 discriminator 4
 1498 016c 0300A0E1 		mov	r0, r3
 1499 0170 F0309FE5 		ldr	r3, .L75+44
 1500 0174 0FE0A0E1 		mov	lr, pc
 1501 0178 13FF2FE1 		bx	r3
 1502              	.LVL28:
 364:main.c        ****                                            : '-'); // je eine eigenen Spannung
 365:main.c        ****   display_char(nxt_avr_get_buttons().grey
 1503              		.loc 1 365 16 is_stmt 1
 1504 017c E0309FE5 		ldr	r3, .L75+40
 1505 0180 0FE0A0E1 		mov	lr, pc
 1506 0184 13FF2FE1 		bx	r3
 1507              	.LVL29:
 1508 0188 0030A0E1 		mov	r3, r0
 366:main.c        ****                    ? 'G'
 1509              		.loc 1 366 20
 1510 018c FF3003E2 		and	r3, r3, #255
 1511 0190 083003E2 		and	r3, r3, #8
 1512 0194 FF3003E2 		and	r3, r3, #255
 365:main.c        ****                    ? 'G'
 1513              		.loc 1 365 3
 1514 0198 000053E3 		cmp	r3, #0
 1515 019c 0100000A 		beq	.L73
 365:main.c        ****                    ? 'G'
 1516              		.loc 1 365 3 is_stmt 0 discriminator 1
 1517 01a0 4730A0E3 		mov	r3, #71
 1518 01a4 000000EA 		b	.L74
 1519              	.L73:
 365:main.c        ****                    ? 'G'
 1520              		.loc 1 365 3 discriminator 2
 1521 01a8 2D30A0E3 		mov	r3, #45
 1522              	.L74:
 365:main.c        ****                    ? 'G'
 1523              		.loc 1 365 3 discriminator 4
 1524 01ac 0300A0E1 		mov	r0, r3
 1525 01b0 B0309FE5 		ldr	r3, .L75+44
 1526 01b4 0FE0A0E1 		mov	lr, pc
 1527 01b8 13FF2FE1 		bx	r3
 1528              	.LVL30:
 367:main.c        ****                    : '-'); // so dass diese 3 nicht gemeinsam
 368:main.c        ****                            // erkannt werden können
 369:main.c        ****   // Beispiel für Zeitdarstellung
 370:main.c        ****   display_goto_xy(0, 5);
 1529              		.loc 1 370 3 is_stmt 1
 1530 01bc 0510A0E3 		mov	r1, #5
 1531 01c0 0000A0E3 		mov	r0, #0
 1532 01c4 80309FE5 		ldr	r3, .L75+16
 1533 01c8 0FE0A0E1 		mov	lr, pc
 1534 01cc 13FF2FE1 		bx	r3
 1535              	.LVL31:
 371:main.c        ****   display_string("Time: ");
 1536              		.loc 1 371 3
 1537 01d0 94009FE5 		ldr	r0, .L75+48
 1538 01d4 64309FE5 		ldr	r3, .L75+4
 1539 01d8 0FE0A0E1 		mov	lr, pc
 1540 01dc 13FF2FE1 		bx	r3
 1541              	.LVL32:
 372:main.c        ****   display_unsigned(systick_get_ms() / 1000, 4);
 1542              		.loc 1 372 20
 1543 01e0 88309FE5 		ldr	r3, .L75+52
 1544 01e4 0FE0A0E1 		mov	lr, pc
 1545 01e8 13FF2FE1 		bx	r3
 1546              	.LVL33:
 1547 01ec 0030A0E1 		mov	r3, r0
 1548              		.loc 1 372 3 discriminator 1
 1549 01f0 7C209FE5 		ldr	r2, .L75+56
 1550 01f4 921383E0 		umull	r1, r3, r2, r3
 1551 01f8 2333A0E1 		lsr	r3, r3, #6
 1552 01fc 0410A0E3 		mov	r1, #4
 1553 0200 0300A0E1 		mov	r0, r3
 1554 0204 4C309FE5 		ldr	r3, .L75+28
 1555 0208 0FE0A0E1 		mov	lr, pc
 1556 020c 13FF2FE1 		bx	r3
 1557              	.LVL34:
 373:main.c        ****   display_string("s");
 1558              		.loc 1 373 3
 1559 0210 60009FE5 		ldr	r0, .L75+60
 1560 0214 24309FE5 		ldr	r3, .L75+4
 1561 0218 0FE0A0E1 		mov	lr, pc
 1562 021c 13FF2FE1 		bx	r3
 1563              	.LVL35:
 374:main.c        ****   display_update();
 1564              		.loc 1 374 3
 1565 0220 54309FE5 		ldr	r3, .L75+64
 1566 0224 0FE0A0E1 		mov	lr, pc
 1567 0228 13FF2FE1 		bx	r3
 1568              	.LVL36:
 375:main.c        **** }
 1569              		.loc 1 375 1
 1570 022c 0000A0E1 		nop
 1571 0230 04D04BE2 		sub	sp, fp, #4
 1572              		.cfi_def_cfa 13, 8
 1573              		@ sp needed
 1574 0234 0048BDE8 		pop	{fp, lr}
 1575              		.cfi_restore 14
 1576              		.cfi_restore 11
 1577              		.cfi_def_cfa_offset 0
 1578 0238 1EFF2FE1 		bx	lr
 1579              	.L76:
 1580              		.align	2
 1581              	.L75:
 1582 023c 10000000 		.word	.LC1
 1583 0240 00000000 		.word	display_string
 1584 0244 00000000 		.word	nxt_avr_get_sensor_adc_raw
 1585 0248 00000000 		.word	display_hex
 1586 024c 00000000 		.word	display_goto_xy
 1587 0250 14000000 		.word	.LC2
 1588 0254 00000000 		.word	nxt_avr_get_battery_mv
 1589 0258 00000000 		.word	display_unsigned
 1590 025c 1C000000 		.word	.LC3
 1591 0260 20000000 		.word	.LC4
 1592 0264 00000000 		.word	nxt_avr_get_buttons
 1593 0268 00000000 		.word	display_char
 1594 026c 28000000 		.word	.LC5
 1595 0270 00000000 		.word	systick_get_ms
 1596 0274 D34D6210 		.word	274877907
 1597 0278 30000000 		.word	.LC6
 1598 027c 00000000 		.word	display_update
 1599              		.cfi_endproc
 1600              	.LFE23:
 1602              		.section	.text.task_512ms,"ax",%progbits
 1603              		.align	2
 1604              		.global	task_512ms
 1605              		.syntax unified
 1606              		.arm
 1608              	task_512ms:
 1609              	.LFB24:
 376:main.c        **** void task_512ms(void) {
 1610              		.loc 1 376 23
 1611              		.cfi_startproc
 1612              		@ Function supports interworking.
 1613              		@ args = 0, pretend = 0, frame = 0
 1614              		@ frame_needed = 1, uses_anonymous_args = 0
 1615              		@ link register save eliminated.
 1616 0000 04B02DE5 		str	fp, [sp, #-4]!
 1617              		.cfi_def_cfa_offset 4
 1618              		.cfi_offset 11, -4
 1619 0004 00B08DE2 		add	fp, sp, #0
 1620              		.cfi_def_cfa_register 11
 377:main.c        ****   // Keine blockierende Aufrufe
 378:main.c        ****   // Max. Bearbeitungsdauer: ZYKLUS_MS
 379:main.c        **** }
 1621              		.loc 1 379 1
 1622 0008 0000A0E1 		nop
 1623 000c 00D08BE2 		add	sp, fp, #0
 1624              		.cfi_def_cfa_register 13
 1625              		@ sp needed
 1626 0010 04B09DE4 		ldr	fp, [sp], #4
 1627              		.cfi_restore 11
 1628              		.cfi_def_cfa_offset 0
 1629 0014 1EFF2FE1 		bx	lr
 1630              		.cfi_endproc
 1631              	.LFE24:
 1633              		.section	.text.task_1024ms,"ax",%progbits
 1634              		.align	2
 1635              		.global	task_1024ms
 1636              		.syntax unified
 1637              		.arm
 1639              	task_1024ms:
 1640              	.LFB25:
 380:main.c        **** void task_1024ms(void) {
 1641              		.loc 1 380 24
 1642              		.cfi_startproc
 1643              		@ Function supports interworking.
 1644              		@ args = 0, pretend = 0, frame = 0
 1645              		@ frame_needed = 1, uses_anonymous_args = 0
 1646              		@ link register save eliminated.
 1647 0000 04B02DE5 		str	fp, [sp, #-4]!
 1648              		.cfi_def_cfa_offset 4
 1649              		.cfi_offset 11, -4
 1650 0004 00B08DE2 		add	fp, sp, #0
 1651              		.cfi_def_cfa_register 11
 381:main.c        ****   // Keine blockierende Aufrufe
 382:main.c        ****   // Max. Bearbeitungsdauer: ZYKLUS_MS
 383:main.c        **** }
 1652              		.loc 1 383 1
 1653 0008 0000A0E1 		nop
 1654 000c 00D08BE2 		add	sp, fp, #0
 1655              		.cfi_def_cfa_register 13
 1656              		@ sp needed
 1657 0010 04B09DE4 		ldr	fp, [sp], #4
 1658              		.cfi_restore 11
 1659              		.cfi_def_cfa_offset 0
 1660 0014 1EFF2FE1 		bx	lr
 1661              		.cfi_endproc
 1662              	.LFE25:
 1664              		.section	.rodata
 1665 0032 0000     		.align	2
 1666              	.LC7:
 1667 0034 0A0D3D3D 		.ascii	"\012\015==>ENTER gedr\374ckt: '\000"
 1667      3E454E54 
 1667      45522067 
 1667      656472FC 
 1667      636B743A 
 1668 004b 00       		.align	2
 1669              	.LC8:
 1670 004c 270A0D00 		.ascii	"'\012\015\000"
 1671              		.section	.text.task_idle,"ax",%progbits
 1672              		.align	2
 1673              		.global	task_idle
 1674              		.syntax unified
 1675              		.arm
 1677              	task_idle:
 1678              	.LFB26:
 384:main.c        **** void task_idle(void) {
 1679              		.loc 1 384 22
 1680              		.cfi_startproc
 1681              		@ Function supports interworking.
 1682              		@ args = 0, pretend = 0, frame = 8
 1683              		@ frame_needed = 1, uses_anonymous_args = 0
 1684 0000 00482DE9 		push	{fp, lr}
 1685              		.cfi_def_cfa_offset 8
 1686              		.cfi_offset 11, -8
 1687              		.cfi_offset 14, -4
 1688 0004 04B08DE2 		add	fp, sp, #4
 1689              		.cfi_def_cfa 11, 4
 1690 0008 08D04DE2 		sub	sp, sp, #8
 385:main.c        ****   // Keine blockierende Aufrufe
 386:main.c        ****   // Max. Bearbeitungsdauer: IDLE_MS
 387:main.c        **** 
 388:main.c        ****   // Beispielanwendung für Terminal-Schnittstelle
 389:main.c        ****   unsigned char c;
 390:main.c        ****   static unsigned char string[100];
 391:main.c        ****   static uint8_t strpos = 0;
 392:main.c        **** 
 393:main.c        ****   if (term_read(&c, ASYNCSYNC_NONBLOCK) == 0) {
 1691              		.loc 1 393 7
 1692 000c 05304BE2 		sub	r3, fp, #5
 1693 0010 0010A0E3 		mov	r1, #0
 1694 0014 0300A0E1 		mov	r0, r3
 1695 0018 DC319FE5 		ldr	r3, .L82
 1696 001c 0FE0A0E1 		mov	lr, pc
 1697 0020 13FF2FE1 		bx	r3
 1698              	.LVL37:
 1699 0024 0030A0E1 		mov	r3, r0
 1700              		.loc 1 393 6 discriminator 1
 1701 0028 000053E3 		cmp	r3, #0
 1702 002c 6E00001A 		bne	.L81
 394:main.c        ****     main_data.term_status |=
 395:main.c        ****         term_char(c, ASYNCSYNC_NONBLOCK); // Das empfangene Zeichen als Echo an
 1703              		.loc 1 395 9
 1704 0030 05305BE5 		ldrb	r3, [fp, #-5]	@ zero_extendqisi2
 1705 0034 0010A0E3 		mov	r1, #0
 1706 0038 0300A0E1 		mov	r0, r3
 1707 003c BC319FE5 		ldr	r3, .L82+4
 1708 0040 0FE0A0E1 		mov	lr, pc
 1709 0044 13FF2FE1 		bx	r3
 1710              	.LVL38:
 1711 0048 0030A0E1 		mov	r3, r0
 394:main.c        ****     main_data.term_status |=
 1712              		.loc 1 394 14
 1713 004c B0219FE5 		ldr	r2, .L82+8
 1714 0050 D020D2E1 		ldrsb	r2, [r2]
 394:main.c        ****     main_data.term_status |=
 1715              		.loc 1 394 27
 1716 0054 033CA0E1 		lsl	r3, r3, #24
 1717 0058 433CA0E1 		asr	r3, r3, #24
 1718 005c 033082E1 		orr	r3, r2, r3
 1719 0060 033CA0E1 		lsl	r3, r3, #24
 1720 0064 432CA0E1 		asr	r2, r3, #24
 1721 0068 94319FE5 		ldr	r3, .L82+8
 1722 006c 0020C3E5 		strb	r2, [r3]
 396:main.c        ****                                           // das Terminal zurückschicken
 397:main.c        ****     string[strpos] = c;
 1723              		.loc 1 397 11
 1724 0070 90319FE5 		ldr	r3, .L82+12
 1725 0074 0030D3E5 		ldrb	r3, [r3]	@ zero_extendqisi2
 1726 0078 0320A0E1 		mov	r2, r3
 1727              		.loc 1 397 20
 1728 007c 05105BE5 		ldrb	r1, [fp, #-5]	@ zero_extendqisi2
 1729 0080 84319FE5 		ldr	r3, .L82+16
 1730 0084 0210C3E7 		strb	r1, [r3, r2]
 398:main.c        ****     string[++strpos] = 0;
 1731              		.loc 1 398 12
 1732 0088 78319FE5 		ldr	r3, .L82+12
 1733 008c 0030D3E5 		ldrb	r3, [r3]	@ zero_extendqisi2
 1734 0090 013083E2 		add	r3, r3, #1
 1735 0094 FF2003E2 		and	r2, r3, #255
 1736              		.loc 1 398 22
 1737 0098 68319FE5 		ldr	r3, .L82+12
 1738 009c 0020C3E5 		strb	r2, [r3]
 1739              		.loc 1 398 12
 1740 00a0 60319FE5 		ldr	r3, .L82+12
 1741 00a4 0030D3E5 		ldrb	r3, [r3]	@ zero_extendqisi2
 1742 00a8 0320A0E1 		mov	r2, r3
 1743              		.loc 1 398 22
 1744 00ac 58319FE5 		ldr	r3, .L82+16
 1745 00b0 0010A0E3 		mov	r1, #0
 1746 00b4 0210C3E7 		strb	r1, [r3, r2]
 399:main.c        ****     strpos = strpos >= (sizeof(string) - 1) ? (sizeof(string) - 2) : strpos;
 1747              		.loc 1 399 68
 1748 00b8 48319FE5 		ldr	r3, .L82+12
 1749 00bc 0030D3E5 		ldrb	r3, [r3]	@ zero_extendqisi2
 1750 00c0 620053E3 		cmp	r3, #98
 1751 00c4 0330A031 		movcc	r3, r3
 1752 00c8 6230A023 		movcs	r3, #98
 1753 00cc FF2003E2 		and	r2, r3, #255
 1754              		.loc 1 399 12
 1755 00d0 30319FE5 		ldr	r3, .L82+12
 1756 00d4 0020C3E5 		strb	r2, [r3]
 400:main.c        **** 
 401:main.c        ****     if (c == '\r') {
 1757              		.loc 1 401 11
 1758 00d8 05305BE5 		ldrb	r3, [fp, #-5]	@ zero_extendqisi2
 1759              		.loc 1 401 8
 1760 00dc 0D0053E3 		cmp	r3, #13
 1761 00e0 4100001A 		bne	.L81
 402:main.c        ****       string[--strpos] = 0;
 1762              		.loc 1 402 14
 1763 00e4 1C319FE5 		ldr	r3, .L82+12
 1764 00e8 0030D3E5 		ldrb	r3, [r3]	@ zero_extendqisi2
 1765 00ec 013043E2 		sub	r3, r3, #1
 1766 00f0 FF2003E2 		and	r2, r3, #255
 1767              		.loc 1 402 24
 1768 00f4 0C319FE5 		ldr	r3, .L82+12
 1769 00f8 0020C3E5 		strb	r2, [r3]
 1770              		.loc 1 402 14
 1771 00fc 04319FE5 		ldr	r3, .L82+12
 1772 0100 0030D3E5 		ldrb	r3, [r3]	@ zero_extendqisi2
 1773 0104 0320A0E1 		mov	r2, r3
 1774              		.loc 1 402 24
 1775 0108 FC309FE5 		ldr	r3, .L82+16
 1776 010c 0010A0E3 		mov	r1, #0
 1777 0110 0210C3E7 		strb	r1, [r3, r2]
 403:main.c        ****       main_data.term_status |= term_string("\n\r==>ENTER gedr\xFC"
 1778              		.loc 1 403 32
 1779 0114 0010A0E3 		mov	r1, #0
 1780 0118 F0009FE5 		ldr	r0, .L82+20
 1781 011c F0309FE5 		ldr	r3, .L82+24
 1782 0120 0FE0A0E1 		mov	lr, pc
 1783 0124 13FF2FE1 		bx	r3
 1784              	.LVL39:
 1785 0128 0030A0E1 		mov	r3, r0
 1786              		.loc 1 403 16 discriminator 1
 1787 012c D0209FE5 		ldr	r2, .L82+8
 1788 0130 D020D2E1 		ldrsb	r2, [r2]
 1789              		.loc 1 403 29 discriminator 1
 1790 0134 033CA0E1 		lsl	r3, r3, #24
 1791 0138 433CA0E1 		asr	r3, r3, #24
 1792 013c 033082E1 		orr	r3, r2, r3
 1793 0140 033CA0E1 		lsl	r3, r3, #24
 1794 0144 432CA0E1 		asr	r2, r3, #24
 1795 0148 B4309FE5 		ldr	r3, .L82+8
 1796 014c 0020C3E5 		strb	r2, [r3]
 404:main.c        ****                                            "ckt: '",
 405:main.c        ****                                            ASYNCSYNC_NONBLOCK);
 406:main.c        ****       main_data.term_status |= term_string((char *)string, ASYNCSYNC_NONBLOCK);
 1797              		.loc 1 406 32
 1798 0150 0010A0E3 		mov	r1, #0
 1799 0154 B0009FE5 		ldr	r0, .L82+16
 1800 0158 B4309FE5 		ldr	r3, .L82+24
 1801 015c 0FE0A0E1 		mov	lr, pc
 1802 0160 13FF2FE1 		bx	r3
 1803              	.LVL40:
 1804 0164 0030A0E1 		mov	r3, r0
 1805              		.loc 1 406 16 discriminator 1
 1806 0168 94209FE5 		ldr	r2, .L82+8
 1807 016c D020D2E1 		ldrsb	r2, [r2]
 1808              		.loc 1 406 29 discriminator 1
 1809 0170 033CA0E1 		lsl	r3, r3, #24
 1810 0174 433CA0E1 		asr	r3, r3, #24
 1811 0178 033082E1 		orr	r3, r2, r3
 1812 017c 033CA0E1 		lsl	r3, r3, #24
 1813 0180 432CA0E1 		asr	r2, r3, #24
 1814 0184 78309FE5 		ldr	r3, .L82+8
 1815 0188 0020C3E5 		strb	r2, [r3]
 407:main.c        ****       main_data.term_status |= term_string("'\n\r", ASYNCSYNC_NONBLOCK);
 1816              		.loc 1 407 32
 1817 018c 0010A0E3 		mov	r1, #0
 1818 0190 80009FE5 		ldr	r0, .L82+28
 1819 0194 78309FE5 		ldr	r3, .L82+24
 1820 0198 0FE0A0E1 		mov	lr, pc
 1821 019c 13FF2FE1 		bx	r3
 1822              	.LVL41:
 1823 01a0 0030A0E1 		mov	r3, r0
 1824              		.loc 1 407 16 discriminator 1
 1825 01a4 58209FE5 		ldr	r2, .L82+8
 1826 01a8 D020D2E1 		ldrsb	r2, [r2]
 1827              		.loc 1 407 29 discriminator 1
 1828 01ac 033CA0E1 		lsl	r3, r3, #24
 1829 01b0 433CA0E1 		asr	r3, r3, #24
 1830 01b4 033082E1 		orr	r3, r2, r3
 1831 01b8 033CA0E1 		lsl	r3, r3, #24
 1832 01bc 432CA0E1 		asr	r2, r3, #24
 1833 01c0 3C309FE5 		ldr	r3, .L82+8
 1834 01c4 0020C3E5 		strb	r2, [r3]
 408:main.c        ****       // oberen 128 ASCII zeichen des Terminal-Fensters sind wie folgt codiert
 409:main.c        ****       // https://en.wikipedia.org/wiki/VT100_encoding
 410:main.c        **** 
 411:main.c        ****       strpos = 0;
 1835              		.loc 1 411 14
 1836 01c8 38309FE5 		ldr	r3, .L82+12
 1837 01cc 0020A0E3 		mov	r2, #0
 1838 01d0 0020C3E5 		strb	r2, [r3]
 412:main.c        ****       string[strpos] = 0;
 1839              		.loc 1 412 13
 1840 01d4 2C309FE5 		ldr	r3, .L82+12
 1841 01d8 0030D3E5 		ldrb	r3, [r3]	@ zero_extendqisi2
 1842 01dc 0320A0E1 		mov	r2, r3
 1843              		.loc 1 412 22
 1844 01e0 24309FE5 		ldr	r3, .L82+16
 1845 01e4 0010A0E3 		mov	r1, #0
 1846 01e8 0210C3E7 		strb	r1, [r3, r2]
 1847              	.L81:
 413:main.c        ****     }
 414:main.c        ****   }
 415:main.c        **** }
 1848              		.loc 1 415 1
 1849 01ec 0000A0E1 		nop
 1850 01f0 04D04BE2 		sub	sp, fp, #4
 1851              		.cfi_def_cfa 13, 8
 1852              		@ sp needed
 1853 01f4 0048BDE8 		pop	{fp, lr}
 1854              		.cfi_restore 14
 1855              		.cfi_restore 11
 1856              		.cfi_def_cfa_offset 0
 1857 01f8 1EFF2FE1 		bx	lr
 1858              	.L83:
 1859              		.align	2
 1860              	.L82:
 1861 01fc 00000000 		.word	term_read
 1862 0200 00000000 		.word	term_char
 1863 0204 00000000 		.word	main_data
 1864 0208 70040000 		.word	strpos.3
 1865 020c 74040000 		.word	string.2
 1866 0210 34000000 		.word	.LC7
 1867 0214 00000000 		.word	term_string
 1868 0218 4C000000 		.word	.LC8
 1869              		.cfi_endproc
 1870              	.LFE26:
 1872              		.section	.text.premain_init,"ax",%progbits
 1873              		.align	2
 1874              		.global	premain_init
 1875              		.syntax unified
 1876              		.arm
 1878              	premain_init:
 1879              	.LFB27:
 416:main.c        **** /*****************************************************************************/
 417:main.c        **** /*    Pre-Main-Funktion                                                      */
 418:main.c        **** /*****************************************************************************/
 419:main.c        **** // Zur Vermeidung von malloc(1024) bei der ersten Ausgabe über stdout!
 420:main.c        **** //__attribute__(constructor) stellt sicher, dass premain_init() direkt nach
 421:main.c        **** //__sinit() aufgerufen wird (beides innerhalb von __libc_init_array())
 422:main.c        **** void __attribute__((constructor)) premain_init(void) {
 1880              		.loc 1 422 54
 1881              		.cfi_startproc
 1882              		@ Function supports interworking.
 1883              		@ args = 0, pretend = 0, frame = 0
 1884              		@ frame_needed = 1, uses_anonymous_args = 0
 1885 0000 30482DE9 		push	{r4, r5, fp, lr}
 1886              		.cfi_def_cfa_offset 16
 1887              		.cfi_offset 4, -16
 1888              		.cfi_offset 5, -12
 1889              		.cfi_offset 11, -8
 1890              		.cfi_offset 14, -4
 1891 0004 0CB08DE2 		add	fp, sp, #12
 1892              		.cfi_def_cfa 11, 4
 423:main.c        **** #if 0
 424:main.c        **** 	//No linebuffering, call stdio_write() immediately
 425:main.c        **** 	//-> Langsam, da mit jedem Zeichen __sflush_r()/_write()/stdio_write() aufgerufen wird 
 426:main.c        **** 	setvbuf(stdout,NULL,_IONBF,0);
 427:main.c        **** #else
 428:main.c        ****   static char linebuf[10];
 429:main.c        ****   // LineBuffering into global Varialbe (guter Kompromiss)
 430:main.c        ****   setvbuf(stdout, linebuf, _IOLBF, sizeof(linebuf)); // Linebuffering in
 1893              		.loc 1 430 11
 1894 0008 2C309FE5 		ldr	r3, .L85
 1895 000c 003093E5 		ldr	r3, [r3]
 1896 0010 080093E5 		ldr	r0, [r3, #8]
 1897              		.loc 1 430 3
 1898 0014 0A30A0E3 		mov	r3, #10
 1899 0018 0120A0E3 		mov	r2, #1
 1900 001c 1C109FE5 		ldr	r1, .L85+4
 1901 0020 1C409FE5 		ldr	r4, .L85+8
 1902 0024 0FE0A0E1 		mov	lr, pc
 1903 0028 14FF2FE1 		bx	r4
 1904              	.LVL42:
 431:main.c        **** #endif
 432:main.c        **** }
 1905              		.loc 1 432 1
 1906 002c 0000A0E1 		nop
 1907 0030 0CD04BE2 		sub	sp, fp, #12
 1908              		.cfi_def_cfa 13, 16
 1909              		@ sp needed
 1910 0034 3048BDE8 		pop	{r4, r5, fp, lr}
 1911              		.cfi_restore 14
 1912              		.cfi_restore 11
 1913              		.cfi_restore 5
 1914              		.cfi_restore 4
 1915              		.cfi_def_cfa_offset 0
 1916 0038 1EFF2FE1 		bx	lr
 1917              	.L86:
 1918              		.align	2
 1919              	.L85:
 1920 003c 00000000 		.word	_impure_ptr
 1921 0040 D8040000 		.word	linebuf.1
 1922 0044 00000000 		.word	setvbuf
 1923              		.cfi_endproc
 1924              	.LFE27:
 1926              		.section	.init_array,"aw",%init_array
 1927              		.align	2
 1928 0000 00000000 		.word	premain_init(target1)
 1929              		.section	.rodata
 1930              		.align	2
 1931              	.LC9:
 1932 0050 64656D6F 		.ascii	"demo : 13:44:28\000"
 1932      203A2031 
 1932      333A3434 
 1932      3A323800 
 1933              		.align	2
 1934              	.LC10:
 1935 0060 1B5B324A 		.ascii	"\033[2J\033[H\033[0m\000"
 1935      1B5B481B 
 1935      5B306D00 
 1936              		.align	2
 1937              	.LC11:
 1938 006c 50726F67 		.ascii	"Prog: demo\012\015Version von: Oct  6 2025 13:44:28"
 1938      3A206465 
 1938      6D6F0A0D 
 1938      56657273 
 1938      696F6E20 
 1939 0099 0A0D00   		.ascii	"\012\015\000"
 1940              		.align	2
 1941              	.LC12:
 1942 009c 27762E64 		.ascii	"'v.draw %e trace_buf0 trace_buf1' zum oeffnen eines"
 1942      72617720 
 1942      25652074 
 1942      72616365 
 1942      5F627566 
 1943 00cf 20274F73 		.ascii	" 'Oszilloskop'\012\015\000"
 1943      7A696C6C 
 1943      6F736B6F 
 1943      70270A0D 
 1943      00
 1944              		.align	2
 1945              	.LC13:
 1946 00e0 27646F20 		.ascii	"'do trace_scope' zum oeffnen eines 'Oszilloskop'\012"
 1946      74726163 
 1946      655F7363 
 1946      6F706527 
 1946      207A756D 
 1947 0111 0D00     		.ascii	"\015\000"
 1948 0113 00       		.align	2
 1949              	.LC14:
 1950 0114 4E585420 		.ascii	"NXT Display Fenster am besten schliessen\012\015\000"
 1950      44697370 
 1950      6C617920 
 1950      46656E73 
 1950      74657220 
 1951 013f 00       		.align	2
 1952              	.LC15:
 1953 0140 5669656C 		.ascii	"Viel Erfolg!\012\015\000"
 1953      20457266 
 1953      6F6C6721 
 1953      0A0D00
 1954 014f 00       		.align	2
 1955              	.LC16:
 1956 0150 00       		.ascii	"\000"
 1957 0151 000000   		.align	2
 1958              	.LC17:
 1959 0154 386D7300 		.ascii	"8ms\000"
 1960              		.align	2
 1961              	.LC18:
 1962 0158 31366D73 		.ascii	"16ms\000"
 1962      00
 1963 015d 000000   		.align	2
 1964              	.LC19:
 1965 0160 33326D73 		.ascii	"32ms\000"
 1965      00
 1966 0165 000000   		.align	2
 1967              	.LC20:
 1968 0168 36346D73 		.ascii	"64ms\000"
 1968      00
 1969 016d 000000   		.align	2
 1970              	.LC21:
 1971 0170 3132386D 		.ascii	"128ms\000"
 1971      7300
 1972 0176 0000     		.align	2
 1973              	.LC22:
 1974 0178 3235366D 		.ascii	"256ms\000"
 1974      7300
 1975 017e 0000     		.align	2
 1976              	.LC23:
 1977 0180 3531326D 		.ascii	"512ms\000"
 1977      7300
 1978 0186 0000     		.align	2
 1979              	.LC24:
 1980 0188 31303234 		.ascii	"1024ms\000"
 1980      6D7300
 1981 018f 00       		.align	2
 1982              	.LC25:
 1983 0190 49646C65 		.ascii	"Idle\000"
 1983      00
 1984 0195 000000   		.align	2
 1985              	.LC26:
 1986 0198 1B5B3331 		.ascii	"\033[31mTiming durch '\000"
 1986      6D54696D 
 1986      696E6720 
 1986      64757263 
 1986      68202700 
 1987              		.align	2
 1988              	.LC27:
 1989 01ac 27207665 		.ascii	"' verletzt\012\015\033[39m\000"
 1989      726C6574 
 1989      7A740A0D 
 1989      1B5B3339 
 1989      6D00
 1990 01be 0000     		.align	2
 1991              	.LC28:
 1992 01c0 1B5B3331 		.ascii	"\033[31mStack overflow durch '\000"
 1992      6D537461 
 1992      636B206F 
 1992      76657266 
 1992      6C6F7720 
 1993              		.align	2
 1994              	.LC29:
 1995 01dc 270A0D1B 		.ascii	"'\012\015\033[39m\000"
 1995      5B33396D 
 1995      00
 1996 01e5 000000   		.align	2
 1997              	.LC30:
 1998 01e8 1B5B3331 		.ascii	"\033[31m\012\015Low Battery\012\015\033[39m\000"
 1998      6D0A0D4C 
 1998      6F772042 
 1998      61747465 
 1998      72790A0D 
 1999 0202 0000     		.align	2
 2000              	.LC31:
 2001 0204 1B5B3331 		.ascii	"\033[31m\012\015Terminal Overflow\012\015\033[39m\000"
 2001      6D0A0D54 
 2001      65726D69 
 2001      6E616C20 
 2001      4F766572 
 2002              		.section	.text.main,"ax",%progbits
 2003              		.align	2
 2004              		.global	main
 2005              		.syntax unified
 2006              		.arm
 2008              	main:
 2009              	.LFB28:
 433:main.c        **** /*****************************************************************************/
 434:main.c        **** /*    Main-Funktion                                                          */
 435:main.c        **** /*****************************************************************************/
 436:main.c        **** #if 0
 437:main.c        **** //Variante 1: Deklaration der main() Funktion
 438:main.c        **** //da es keine CLI gibt, über welcher die Anwendung getartet wird
 439:main.c        **** //sondern der start über startup.s erfolgt, macht dies kein Sinn
 440:main.c        **** //und belegt unnötige Speicherplatz auf den Stack
 441:main.c        **** int main(int argc, char *argv[]) 
 442:main.c        **** {
 443:main.c        **** 	(void) argc;
 444:main.c        **** 	(void) argv;
 445:main.c        **** #else
 446:main.c        **** // Variante 2: Deklaration der main() funktion
 447:main.c        **** int main(void) {
 2010              		.loc 1 447 16
 2011              		.cfi_startproc
 2012              		@ Function supports interworking.
 2013              		@ args = 0, pretend = 0, frame = 24
 2014              		@ frame_needed = 1, uses_anonymous_args = 0
 2015 0000 00482DE9 		push	{fp, lr}
 2016              		.cfi_def_cfa_offset 8
 2017              		.cfi_offset 11, -8
 2018              		.cfi_offset 14, -4
 2019 0004 04B08DE2 		add	fp, sp, #4
 2020              		.cfi_def_cfa 11, 4
 2021 0008 18D04DE2 		sub	sp, sp, #24
 448:main.c        **** #endif
 449:main.c        ****   /* Interrupts zu diesem Zeitpunkt disabled !!!! */
 450:main.c        **** 
 451:main.c        ****   /* 'Pflicht' Initialisierung, können nicht ausgelassen werden */
 452:main.c        ****   aic_init();          // Interrupt-Controller initialisieren
 2022              		.loc 1 452 3
 2023 000c E4359FE5 		ldr	r3, .L116
 2024 0010 0FE0A0E1 		mov	lr, pc
 2025 0014 13FF2FE1 		bx	r3
 2026              	.LVL43:
 453:main.c        ****   systick_init();      // System-Timer initialisieren
 2027              		.loc 1 453 3
 2028 0018 DC359FE5 		ldr	r3, .L116+4
 2029 001c 0FE0A0E1 		mov	lr, pc
 2030 0020 13FF2FE1 		bx	r3
 2031              	.LVL44:
 454:main.c        ****   interrupts_enable(); // Ohne Worte
 2032              		.loc 1 454 3
 2033 0024 D4359FE5 		ldr	r3, .L116+8
 2034 0028 0FE0A0E1 		mov	lr, pc
 2035 002c 13FF2FE1 		bx	r3
 2036              	.LVL45:
 455:main.c        ****   nxt_avr_init(8);
 2037              		.loc 1 455 3
 2038 0030 0800A0E3 		mov	r0, #8
 2039 0034 C8359FE5 		ldr	r3, .L116+12
 2040 0038 0FE0A0E1 		mov	lr, pc
 2041 003c 13FF2FE1 		bx	r3
 2042              	.LVL46:
 456:main.c        **** #if defined(MODE_RAM) || defined(MODE_SIM)
 457:main.c        ****   udmon3_init(); // Speicherzugriff durch den Debugger
 2043              		.loc 1 457 3
 2044 0040 C0359FE5 		ldr	r3, .L116+16
 2045 0044 0FE0A0E1 		mov	lr, pc
 2046 0048 13FF2FE1 		bx	r3
 2047              	.LVL47:
 458:main.c        ****                  // zur Programmlaufzeit mittels der
 459:main.c        ****                  // DCC Schnittstelle ermöglichen
 460:main.c        **** #endif
 461:main.c        **** 
 462:main.c        ****   /* 'Wahl' Initialisierung, hängt von den benötigten Komponenten ab */
 463:main.c        ****   term_init();
 2048              		.loc 1 463 3
 2049 004c B8359FE5 		ldr	r3, .L116+20
 2050 0050 0FE0A0E1 		mov	lr, pc
 2051 0054 13FF2FE1 		bx	r3
 2052              	.LVL48:
 464:main.c        ****   display_init();
 2053              		.loc 1 464 3
 2054 0058 B0359FE5 		ldr	r3, .L116+24
 2055 005c 0FE0A0E1 		mov	lr, pc
 2056 0060 13FF2FE1 		bx	r3
 2057              	.LVL49:
 465:main.c        ****   display_clear(0);
 2058              		.loc 1 465 3
 2059 0064 0000A0E3 		mov	r0, #0
 2060 0068 A4359FE5 		ldr	r3, .L116+28
 2061 006c 0FE0A0E1 		mov	lr, pc
 2062 0070 13FF2FE1 		bx	r3
 2063              	.LVL50:
 466:main.c        ****   display_string(APP_NAME " : " __TIME__);
 2064              		.loc 1 466 3
 2065 0074 9C059FE5 		ldr	r0, .L116+32
 2066 0078 9C359FE5 		ldr	r3, .L116+36
 2067 007c 0FE0A0E1 		mov	lr, pc
 2068 0080 13FF2FE1 		bx	r3
 2069              	.LVL51:
 467:main.c        ****   display_update();
 2070              		.loc 1 467 3
 2071 0084 94359FE5 		ldr	r3, .L116+40
 2072 0088 0FE0A0E1 		mov	lr, pc
 2073 008c 13FF2FE1 		bx	r3
 2074              	.LVL52:
 468:main.c        **** 
 469:main.c        ****   // ANSI Escape sequences - VT100 / VT52 (see main.h)
 470:main.c        ****   (void)term_string(
 2075              		.loc 1 470 9
 2076 0090 0110A0E3 		mov	r1, #1
 2077 0094 88059FE5 		ldr	r0, .L116+44
 2078 0098 88359FE5 		ldr	r3, .L116+48
 2079 009c 0FE0A0E1 		mov	lr, pc
 2080 00a0 13FF2FE1 		bx	r3
 2081              	.LVL53:
 471:main.c        ****       "\033[2J" VT100_CURSORHOME // Move Cursor to home position (0,0)
 472:main.c        ****           VT100_DEFAULT,
 473:main.c        ****       ASYNCSYNC_BLOCK);
 474:main.c        ****   (void)term_string("Prog: " APP_NAME "\n\rVersion von: " __DATE__ " " __TIME__
 2082              		.loc 1 474 9
 2083 00a4 0110A0E3 		mov	r1, #1
 2084 00a8 7C059FE5 		ldr	r0, .L116+52
 2085 00ac 74359FE5 		ldr	r3, .L116+48
 2086 00b0 0FE0A0E1 		mov	lr, pc
 2087 00b4 13FF2FE1 		bx	r3
 2088              	.LVL54:
 475:main.c        ****                     "\n\r",
 476:main.c        ****                     ASYNCSYNC_BLOCK);
 477:main.c        ****   (void)term_string(
 2089              		.loc 1 477 9
 2090 00b8 0110A0E3 		mov	r1, #1
 2091 00bc 6C059FE5 		ldr	r0, .L116+56
 2092 00c0 60359FE5 		ldr	r3, .L116+48
 2093 00c4 0FE0A0E1 		mov	lr, pc
 2094 00c8 13FF2FE1 		bx	r3
 2095              	.LVL55:
 478:main.c        ****       "'v.draw %e trace_buf0 trace_buf1' zum oeffnen eines 'Oszilloskop'\n\r",
 479:main.c        ****       ASYNCSYNC_BLOCK);
 480:main.c        ****   (void)term_string("'do trace_scope' zum oeffnen eines 'Oszilloskop'\n\r",
 2096              		.loc 1 480 9
 2097 00cc 0110A0E3 		mov	r1, #1
 2098 00d0 5C059FE5 		ldr	r0, .L116+60
 2099 00d4 4C359FE5 		ldr	r3, .L116+48
 2100 00d8 0FE0A0E1 		mov	lr, pc
 2101 00dc 13FF2FE1 		bx	r3
 2102              	.LVL56:
 481:main.c        ****                     ASYNCSYNC_BLOCK);
 482:main.c        ****   (void)term_string("NXT Display Fenster am besten schliessen\n\r",
 2103              		.loc 1 482 9
 2104 00e0 0110A0E3 		mov	r1, #1
 2105 00e4 4C059FE5 		ldr	r0, .L116+64
 2106 00e8 38359FE5 		ldr	r3, .L116+48
 2107 00ec 0FE0A0E1 		mov	lr, pc
 2108 00f0 13FF2FE1 		bx	r3
 2109              	.LVL57:
 483:main.c        ****                     ASYNCSYNC_BLOCK);
 484:main.c        ****   (void)term_string("Viel Erfolg!\n\r", ASYNCSYNC_BLOCK);
 2110              		.loc 1 484 9
 2111 00f4 0110A0E3 		mov	r1, #1
 2112 00f8 3C059FE5 		ldr	r0, .L116+68
 2113 00fc 24359FE5 		ldr	r3, .L116+48
 2114 0100 0FE0A0E1 		mov	lr, pc
 2115 0104 13FF2FE1 		bx	r3
 2116              	.LVL58:
 485:main.c        **** 
 486:main.c        ****   // Alternativ zu term_xxx() kann auch printf() oder noch besser iprintf
 487:main.c        ****   // genutzt werden beide bedingen jedoch einen großen Speicherbedarf!
 488:main.c        ****   // Alternativ zu term_read() kann auch scanf() genutzt werden. Auch diese
 489:main.c        ****   // Funktion
 490:main.c        ****   //  bedingt einen großen Speicherbedarf
 491:main.c        **** 
 492:main.c        **** #ifndef MODE_ROM
 493:main.c        ****   /* Watchdog Disable */
 494:main.c        ****   /* Mode-Register kann nur einmal beschrieben werden */
 495:main.c        ****   AT91C_BASE_WDTC->WDTC_WDMR = 0xFFF | AT91C_WDTC_WDDIS | /*WD Disable */
 2117              		.loc 1 495 18
 2118 0108 30359FE5 		ldr	r3, .L116+72
 2119              		.loc 1 495 30
 2120 010c 30259FE5 		ldr	r2, .L116+76
 2121 0110 042083E5 		str	r2, [r3, #4]
 2122              	.LBB8:
 2123              	.LBB9:
 2124              		.file 4 "lib/../main.h"
   1:lib/../main.h **** #ifndef main_h
   2:lib/../main.h **** #define main_h
   3:lib/../main.h **** #include <stdint.h>
   4:lib/../main.h **** 
   5:lib/../main.h **** //ASCII-Zeichen
   6:lib/../main.h **** //\a The “alert” character, Ctrl-g, ASCII code 7 (BEL). (This usually makes some sort of audibl
   7:lib/../main.h **** //\b Backspace, Ctrl-h, ASCII code 8 (BS).
   8:lib/../main.h **** //\f Formfeed, Ctrl-l, ASCII code 12 (FF).
   9:lib/../main.h **** //\n Newline, Ctrl-j, ASCII code 10 (LF).
  10:lib/../main.h **** //\r Carriage return, Ctrl-m, ASCII code 13 (CR).
  11:lib/../main.h **** //\t Horizontal TAB, Ctrl-i, ASCII code 9 (HT).
  12:lib/../main.h **** //\v Vertical tab, Ctrl-k, ASCII code 11 (VT).
  13:lib/../main.h **** //\nnn The octal value nnn, where nnn stands for 1 to 3 digits between ‘0’ and ‘7’. For exa
  14:lib/../main.h **** //\xhh...The hexadecimal value hh, where hh stands for a sequence of hexadecimal digits (‘0’–
  15:lib/../main.h **** //       Like the same construct in ISO C, the escape sequence continues until 
  16:lib/../main.h **** //       the first nonhexadecimal digit is seen. (c.e.) However, using more 
  17:lib/../main.h **** //       than two hexadecimal digits produces undefined results. 
  18:lib/../main.h **** //       (The ‘\x’ escape sequence is not allowed in POSIX awk.)
  19:lib/../main.h **** //\/ A literal slash (necessary for regexp constants only). This sequence 
  20:lib/../main.h **** //       is used when you want to write a regexp constant that contains a 
  21:lib/../main.h **** //       slash. Because the regexp is delimited by slashes, you need to 
  22:lib/../main.h **** //       escape the slash that is part of the pattern, in order to tell 
  23:lib/../main.h **** //       awk to keep processing the rest of the regexp.
  24:lib/../main.h **** //\"  A literal double quote (necessary for string constants only). 
  25:lib/../main.h **** //       This sequence is used when you want to write a string constant 
  26:lib/../main.h **** //       that contains a double quote. Because the string is delimited by 
  27:lib/../main.h **** //       double quotes, you need to escape the quote that is part of 
  28:lib/../main.h **** //       the string, in order to tell awk to keep processing the rest
  29:lib/../main.h **** //       of the string.#define ANSI_BLACK   30
  30:lib/../main.h **** 
  31:lib/../main.h **** //https://www-user.tu-chemnitz.de/~heha/hsn/terminal/terminal.htm
  32:lib/../main.h **** //https://gist.github.com/ConnerWill/d4b6c776b509add763e17f9f113fd25b
  33:lib/../main.h **** //Cursor Control
  34:lib/../main.h **** #define VT100_CURSORHOME      "\e[H"
  35:lib/../main.h **** #define VT100_CLEARSCREEN     "\e[2J"
  36:lib/../main.h **** #define VT100_GOTOYX          "\e[%d;%dH"
  37:lib/../main.h **** #define VT100_SAVEPOS         "\e7"
  38:lib/../main.h **** #define VT100_RESTOREPOS      "\e8"
  39:lib/../main.h **** #define VT100_ROLLY1Y2        "\e[%d;%dr"
  40:lib/../main.h **** #define VT100_ROLLOFF         "\e[r"
  41:lib/../main.h **** //Erase Functions
  42:lib/../main.h **** #define VT100_ERASEFROMCURSOR "\e[0J"
  43:lib/../main.h **** #define VT100_ERASETOCURSOR   "\e[1J"
  44:lib/../main.h **** #define VT100_ERASESCREEN     "\e[2J"
  45:lib/../main.h **** #define VT100_DEL_UNTILEOL    "\e[K"
  46:lib/../main.h **** #define VT100_DEL_TOCUR       "\e[1K"
  47:lib/../main.h **** #define VT100_DEL_LINE        "\e[2K"
  48:lib/../main.h **** //Color/Graphics Mode
  49:lib/../main.h **** #define VT100_DEFAULT         "\e[0m"  //stellt hellgraue Schrift auf schwarzem Grund ein
  50:lib/../main.h **** #define VT100_FETT              "\e[1m"
  51:lib/../main.h **** #define VT100_FETT_AUS          "\e[22m"
  52:lib/../main.h **** #define VT100_UNTERSTRICHEN     "\e[4m"
  53:lib/../main.h **** #define VT100_UNTERSTRICHEN_AUS "\e[24m"
  54:lib/../main.h **** #define VT100_BLINKEN           "\e[5m"
  55:lib/../main.h **** #define VT100_BLINKEN_AUS       "\e[25m"
  56:lib/../main.h **** #define VT100_INVERS            "\e[7m"
  57:lib/../main.h **** #define VT100_INVERS_AUS        "\e[27m"
  58:lib/../main.h **** #define VT100_UNSICHTBAR        "\e[8m"
  59:lib/../main.h **** #define VT100_SICHTBAR          "\e[28m"
  60:lib/../main.h **** #define VT100_VORDERGRUND_SCHWARZ "\e[30m"
  61:lib/../main.h **** #define VT100_VORDERGRUND_ROT     "\e[31m"
  62:lib/../main.h **** #define VT100_VORDERGRUND_GRUEN   "\e[32m"
  63:lib/../main.h **** #define VT100_VORDERGRUND_BRAUN   "\e[33m"
  64:lib/../main.h **** #define VT100_VORDERGRUND_BLAU    "\e[34m"
  65:lib/../main.h **** #define VT100_VORDERGRUND_BLAUROT "\e[35m"
  66:lib/../main.h **** #define VT100_VORDERGRUND_ZYAN    "\e[36m"
  67:lib/../main.h **** #define VT100_VORDERGRUND_WEISS   "\e[37m"  //Default
  68:lib/../main.h **** #define VT100_VORDERGRUND_DEFAULT "\e[39m"  //Nicht VT100
  69:lib/../main.h **** #define VT100_HINTERGRUND_SCHWARZ "\e[40m"  //Default
  70:lib/../main.h **** #define VT100_HINTERGRUND_ROT     "\e[41m"  
  71:lib/../main.h **** #define VT100_HINTERGRUND_GRUEN   "\e[42m"  
  72:lib/../main.h **** #define VT100_HINTERGRUND_BRAUN   "\e[43m"  
  73:lib/../main.h **** #define VT100_HINTERGRUND_BLAU    "\e[44m"  
  74:lib/../main.h **** #define VT100_HINTERGRUND_BLAUROT "\e[45m"  
  75:lib/../main.h **** #define VT100_HINTERGRUND_ZYAN    "\e[46m"  
  76:lib/../main.h **** #define VT100_HINTERGRUND_WEISS   "\e[47m"  
  77:lib/../main.h **** #define VT100_HINTERGRUND_DEFAULT "\e[49m"
  78:lib/../main.h **** 
  79:lib/../main.h ****                                                          /* Main Clock [Hz] */
  80:lib/../main.h **** #define MAINCK            18432000
  81:lib/../main.h ****                                      /* Maseter Clock (PLLRC div by 2) [Hz] */
  82:lib/../main.h **** #define MCK               47923200
  83:lib/../main.h ****                                              /* System clock tick rate [Hz] */
  84:lib/../main.h **** #define BSP_TICKS_PER_SEC 1000
  85:lib/../main.h **** 
  86:lib/../main.h **** //#define NODISCARD __attribute__((warn_unused_result))  
  87:lib/../main.h **** #define NODISCARD  [[nodiscard]]
  88:lib/../main.h **** 
  89:lib/../main.h **** typedef enum __attribute__((packed)) {ASYNCSYNC_NONBLOCK,ASYNCSYNC_BLOCK,ASYNCSYNC_ASYNCGET} asyncs
  90:lib/../main.h **** 
  91:lib/../main.h **** typedef enum {SENSOR_1,SENSOR_2,SENSOR_3,SENSOR_4,SENSOR_MAX} sensor_t;
  92:lib/../main.h **** 
  93:lib/../main.h **** typedef enum {MOTOR_A,MOTOR_B,MOTOR_C} motor_t;
  94:lib/../main.h **** 
  95:lib/../main.h **** typedef enum {MOTOR_BREAK, MOTOR_FLOAT} motor_zustand_t;
  96:lib/../main.h **** 
  97:lib/../main.h **** typedef enum {SENSOR_OFF=0x00, SENSOR_9V_PULSED=0x01, SENSOR_9V=0x10 } sensor_power_t;
  98:lib/../main.h **** 
  99:lib/../main.h **** typedef enum {BATTERY_AA, BATTERY_ACCU} battery_t;
 100:lib/../main.h **** 
 101:lib/../main.h **** typedef struct {
 102:lib/../main.h **** 	uint8_t orange : 1;
 103:lib/../main.h **** 	uint8_t left : 1;
 104:lib/../main.h **** 	uint8_t right : 1;
 105:lib/../main.h **** 	uint8_t grey : 1;
 106:lib/../main.h **** 	uint8_t reserved : 4;
 107:lib/../main.h **** } button_t;
 108:lib/../main.h **** 
 109:lib/../main.h **** #define I2C_BAUDRATE 10000  //Orignal 9600
 110:lib/../main.h **** 
 111:lib/../main.h **** extern uint32_t __stack_start__[];   //Definiert in link.ld
 112:lib/../main.h **** extern uint32_t __stack_end__;       //Definiert in link.ld
 113:lib/../main.h **** #define STACK_FILL 0x11111111
 114:lib/../main.h **** 
 115:lib/../main.h **** static __inline__ void stack_fill(void) __attribute__((always_inline));
 116:lib/../main.h **** static __inline__ void stack_fill(void)
 117:lib/../main.h **** {
 118:lib/../main.h **** 	         uint32_t *ptr;
 119:lib/../main.h **** 	register uint32_t *sp asm("r13");
 120:lib/../main.h **** 	for(ptr=&__stack_start__[0];ptr<sp;ptr++)
 2125              		.loc 4 120 9
 2126 0114 2C359FE5 		ldr	r3, .L116+80
 2127 0118 14300BE5 		str	r3, [fp, #-20]
 2128              		.loc 4 120 2
 2129 011c 050000EA 		b	.L88
 2130              	.L89:
 121:lib/../main.h **** 		*ptr=STACK_FILL;
 2131              		.loc 4 121 7
 2132 0120 14301BE5 		ldr	r3, [fp, #-20]
 2133 0124 20259FE5 		ldr	r2, .L116+84
 2134 0128 002083E5 		str	r2, [r3]
 120:lib/../main.h **** 		*ptr=STACK_FILL;
 2135              		.loc 4 120 40 discriminator 3
 2136 012c 14301BE5 		ldr	r3, [fp, #-20]
 2137 0130 043083E2 		add	r3, r3, #4
 2138 0134 14300BE5 		str	r3, [fp, #-20]
 2139              	.L88:
 120:lib/../main.h **** 		*ptr=STACK_FILL;
 2140              		.loc 4 120 33 discriminator 1
 2141 0138 0D20A0E1 		mov	r2, sp
 2142 013c 14301BE5 		ldr	r3, [fp, #-20]
 2143 0140 020053E1 		cmp	r3, r2
 2144 0144 F5FFFF3A 		bcc	.L89
 122:lib/../main.h **** }
 2145              		.loc 4 122 1
 2146 0148 0000A0E1 		nop
 2147              	.L90:
 2148              	.LBE9:
 2149              	.LBE8:
 496:main.c        ****                                AT91C_WDTC_WDDBGHLT |      /*Debug Halt */
 497:main.c        ****                                AT91C_WDTC_WDIDLEHLT;      /*Idle Halt  */
 498:main.c        **** #else
 499:main.c        **** #if 0
 500:main.c        **** 	/* Watchdog Enable */
 501:main.c        **** 	/* Da in dieser Version kein zyklischer Reset des Watchdogs */
 502:main.c        **** 	/* vorhanden ist, wird von einem Watchdog Enable abgesehen  */
 503:main.c        **** 	/* Mit Reset wird der Wachdog aktiviert!                    */
 504:main.c        **** #else
 505:main.c        **** /* Watchdog Disable */
 506:main.c        **** /* Mode-Register kann nur einmal beschrieben werden */
 507:main.c        **** AT91C_BASE_WDTC->WDTC_WDMR = 0xFFF | AT91C_WDTC_WDDIS | /*WD Disable */
 508:main.c        ****                              AT91C_WDTC_WDDBGHLT |      /*Debug Halt */
 509:main.c        ****                              AT91C_WDTC_WDIDLEHLT;      /*Idle Halt  */
 510:main.c        **** #endif
 511:main.c        **** #endif
 512:main.c        ****   // Vorangegangenen Stackaufbau 'löschen'
 513:main.c        ****   stack_fill();
 514:main.c        ****   // Label, so das mit 'go start' hierin gesprungen werden kann
 515:main.c        **** start:
 516:main.c        ****   __attribute__((unused));
 517:main.c        ****   uint32_t start_tick = systick_get_ms();
 2150              		.loc 1 517 25
 2151 014c FC349FE5 		ldr	r3, .L116+88
 2152 0150 0FE0A0E1 		mov	lr, pc
 2153 0154 13FF2FE1 		bx	r3
 2154              	.LVL59:
 2155 0158 08000BE5 		str	r0, [fp, #-8]
 518:main.c        ****   uint32_t zeitscheibe = 0;
 2156              		.loc 1 518 12
 2157 015c 0030A0E3 		mov	r3, #0
 2158 0160 0C300BE5 		str	r3, [fp, #-12]
 519:main.c        ****   char *task_aktiv = "";
 2159              		.loc 1 519 9
 2160 0164 E8349FE5 		ldr	r3, .L116+92
 2161 0168 10300BE5 		str	r3, [fp, #-16]
 2162              	.L115:
 520:main.c        ****   while (1) {
 521:main.c        ****     // Warten bis zum nächsten TimeSlot
 522:main.c        ****     while ((int)(start_tick - systick_get_ms()) > 0)
 2163              		.loc 1 522 11
 2164 016c 0000A0E1 		nop
 2165              	.L91:
 2166              		.loc 1 522 31 discriminator 1
 2167 0170 D8349FE5 		ldr	r3, .L116+88
 2168 0174 0FE0A0E1 		mov	lr, pc
 2169 0178 13FF2FE1 		bx	r3
 2170              	.LVL60:
 2171 017c 0020A0E1 		mov	r2, r0
 2172              		.loc 1 522 29 discriminator 1
 2173 0180 08301BE5 		ldr	r3, [fp, #-8]
 2174 0184 023043E0 		sub	r3, r3, r2
 2175              		.loc 1 522 49 discriminator 1
 2176 0188 000053E3 		cmp	r3, #0
 2177 018c F7FFFFCA 		bgt	.L91
 523:main.c        ****       ;
 524:main.c        ****     start_tick += ZYKLUS_MS;
 2178              		.loc 1 524 16
 2179 0190 08301BE5 		ldr	r3, [fp, #-8]
 2180 0194 043083E2 		add	r3, r3, #4
 2181 0198 08300BE5 		str	r3, [fp, #-8]
 2182              	.L92:
 525:main.c        ****     // Label, so das mit 'go zyklus' hierhin gesprungen werden kann
 526:main.c        ****   zyklus:
 527:main.c        ****     __attribute__((unused)) if ((zeitscheibe & 0b000000001) == 0b000000001) {
 2183              		.loc 1 527 46
 2184 019c 0C301BE5 		ldr	r3, [fp, #-12]
 2185 01a0 013003E2 		and	r3, r3, #1
 2186              		.loc 1 527 32
 2187 01a4 000053E3 		cmp	r3, #0
 2188 01a8 0500000A 		beq	.L93
 528:main.c        ****       task_aktiv = "8ms";
 2189              		.loc 1 528 18
 2190 01ac A4349FE5 		ldr	r3, .L116+96
 2191 01b0 10300BE5 		str	r3, [fp, #-16]
 529:main.c        ****       task_8ms();
 2192              		.loc 1 529 7
 2193 01b4 A0349FE5 		ldr	r3, .L116+100
 2194 01b8 0FE0A0E1 		mov	lr, pc
 2195 01bc 13FF2FE1 		bx	r3
 2196              	.LVL61:
 2197 01c0 440000EA 		b	.L94
 2198              	.L93:
 530:main.c        ****     }
 531:main.c        ****     else if ((zeitscheibe & 0b000000011) == 0b000000010) {
 2199              		.loc 1 531 27
 2200 01c4 0C301BE5 		ldr	r3, [fp, #-12]
 2201 01c8 033003E2 		and	r3, r3, #3
 2202              		.loc 1 531 13
 2203 01cc 020053E3 		cmp	r3, #2
 2204 01d0 0500001A 		bne	.L95
 532:main.c        ****       task_aktiv = "16ms";
 2205              		.loc 1 532 18
 2206 01d4 84349FE5 		ldr	r3, .L116+104
 2207 01d8 10300BE5 		str	r3, [fp, #-16]
 533:main.c        ****       task_16ms();
 2208              		.loc 1 533 7
 2209 01dc 80349FE5 		ldr	r3, .L116+108
 2210 01e0 0FE0A0E1 		mov	lr, pc
 2211 01e4 13FF2FE1 		bx	r3
 2212              	.LVL62:
 2213 01e8 3A0000EA 		b	.L94
 2214              	.L95:
 534:main.c        ****     }
 535:main.c        ****     else if ((zeitscheibe & 0b000000111) == 0b000000100) {
 2215              		.loc 1 535 27
 2216 01ec 0C301BE5 		ldr	r3, [fp, #-12]
 2217 01f0 073003E2 		and	r3, r3, #7
 2218              		.loc 1 535 13
 2219 01f4 040053E3 		cmp	r3, #4
 2220 01f8 0500001A 		bne	.L96
 536:main.c        ****       task_aktiv = "32ms";
 2221              		.loc 1 536 18
 2222 01fc 64349FE5 		ldr	r3, .L116+112
 2223 0200 10300BE5 		str	r3, [fp, #-16]
 537:main.c        ****       task_32ms();
 2224              		.loc 1 537 7
 2225 0204 60349FE5 		ldr	r3, .L116+116
 2226 0208 0FE0A0E1 		mov	lr, pc
 2227 020c 13FF2FE1 		bx	r3
 2228              	.LVL63:
 2229 0210 300000EA 		b	.L94
 2230              	.L96:
 538:main.c        ****     }
 539:main.c        ****     else if ((zeitscheibe & 0b000001111) == 0b000001000) {
 2231              		.loc 1 539 27
 2232 0214 0C301BE5 		ldr	r3, [fp, #-12]
 2233 0218 0F3003E2 		and	r3, r3, #15
 2234              		.loc 1 539 13
 2235 021c 080053E3 		cmp	r3, #8
 2236 0220 0500001A 		bne	.L97
 540:main.c        ****       task_aktiv = "64ms";
 2237              		.loc 1 540 18
 2238 0224 44349FE5 		ldr	r3, .L116+120
 2239 0228 10300BE5 		str	r3, [fp, #-16]
 541:main.c        ****       task_64ms();
 2240              		.loc 1 541 7
 2241 022c 40349FE5 		ldr	r3, .L116+124
 2242 0230 0FE0A0E1 		mov	lr, pc
 2243 0234 13FF2FE1 		bx	r3
 2244              	.LVL64:
 2245 0238 260000EA 		b	.L94
 2246              	.L97:
 542:main.c        ****     }
 543:main.c        ****     else if ((zeitscheibe & 0b000011111) == 0b000010000) {
 2247              		.loc 1 543 27
 2248 023c 0C301BE5 		ldr	r3, [fp, #-12]
 2249 0240 1F3003E2 		and	r3, r3, #31
 2250              		.loc 1 543 13
 2251 0244 100053E3 		cmp	r3, #16
 2252 0248 0500001A 		bne	.L98
 544:main.c        ****       task_aktiv = "128ms";
 2253              		.loc 1 544 18
 2254 024c 24349FE5 		ldr	r3, .L116+128
 2255 0250 10300BE5 		str	r3, [fp, #-16]
 545:main.c        ****       task_128ms();
 2256              		.loc 1 545 7
 2257 0254 20349FE5 		ldr	r3, .L116+132
 2258 0258 0FE0A0E1 		mov	lr, pc
 2259 025c 13FF2FE1 		bx	r3
 2260              	.LVL65:
 2261 0260 1C0000EA 		b	.L94
 2262              	.L98:
 546:main.c        ****     }
 547:main.c        ****     else if ((zeitscheibe & 0b000111111) == 0b000100000) {
 2263              		.loc 1 547 27
 2264 0264 0C301BE5 		ldr	r3, [fp, #-12]
 2265 0268 3F3003E2 		and	r3, r3, #63
 2266              		.loc 1 547 13
 2267 026c 200053E3 		cmp	r3, #32
 2268 0270 0500001A 		bne	.L99
 548:main.c        ****       task_aktiv = "256ms";
 2269              		.loc 1 548 18
 2270 0274 04349FE5 		ldr	r3, .L116+136
 2271 0278 10300BE5 		str	r3, [fp, #-16]
 549:main.c        ****       task_256ms();
 2272              		.loc 1 549 7
 2273 027c 00349FE5 		ldr	r3, .L116+140
 2274 0280 0FE0A0E1 		mov	lr, pc
 2275 0284 13FF2FE1 		bx	r3
 2276              	.LVL66:
 2277 0288 120000EA 		b	.L94
 2278              	.L99:
 550:main.c        ****     }
 551:main.c        ****     else if ((zeitscheibe & 0b001111111) == 0b001000000) {
 2279              		.loc 1 551 27
 2280 028c 0C301BE5 		ldr	r3, [fp, #-12]
 2281 0290 7F3003E2 		and	r3, r3, #127
 2282              		.loc 1 551 13
 2283 0294 400053E3 		cmp	r3, #64
 2284 0298 0500001A 		bne	.L100
 552:main.c        ****       task_aktiv = "512ms";
 2285              		.loc 1 552 18
 2286 029c E4339FE5 		ldr	r3, .L116+144
 2287 02a0 10300BE5 		str	r3, [fp, #-16]
 553:main.c        ****       task_512ms();
 2288              		.loc 1 553 7
 2289 02a4 E0339FE5 		ldr	r3, .L116+148
 2290 02a8 0FE0A0E1 		mov	lr, pc
 2291 02ac 13FF2FE1 		bx	r3
 2292              	.LVL67:
 2293 02b0 080000EA 		b	.L94
 2294              	.L100:
 554:main.c        ****     }
 555:main.c        ****     else if ((zeitscheibe & 0b011111111) == 0b010000000) {
 2295              		.loc 1 555 27
 2296 02b4 0C301BE5 		ldr	r3, [fp, #-12]
 2297 02b8 FF3003E2 		and	r3, r3, #255
 2298              		.loc 1 555 13
 2299 02bc 800053E3 		cmp	r3, #128
 2300 02c0 0400001A 		bne	.L94
 556:main.c        ****       task_aktiv = "1024ms";
 2301              		.loc 1 556 18
 2302 02c4 C4339FE5 		ldr	r3, .L116+152
 2303 02c8 10300BE5 		str	r3, [fp, #-16]
 557:main.c        ****       task_1024ms();
 2304              		.loc 1 557 7
 2305 02cc C0339FE5 		ldr	r3, .L116+156
 2306 02d0 0FE0A0E1 		mov	lr, pc
 2307 02d4 13FF2FE1 		bx	r3
 2308              	.LVL68:
 2309              	.L94:
 558:main.c        ****     }
 559:main.c        ****     // Zeit für IDLE-Task verfügbar
 560:main.c        ****     if ((int)(start_tick - systick_get_ms()) >= IDLE_MS) {
 2310              		.loc 1 560 28
 2311 02d8 70339FE5 		ldr	r3, .L116+88
 2312 02dc 0FE0A0E1 		mov	lr, pc
 2313 02e0 13FF2FE1 		bx	r3
 2314              	.LVL69:
 2315 02e4 0020A0E1 		mov	r2, r0
 2316              		.loc 1 560 26 discriminator 1
 2317 02e8 08301BE5 		ldr	r3, [fp, #-8]
 2318 02ec 023043E0 		sub	r3, r3, r2
 2319              		.loc 1 560 8 discriminator 1
 2320 02f0 010053E3 		cmp	r3, #1
 2321 02f4 040000DA 		ble	.L101
 561:main.c        ****       task_aktiv = "Idle";
 2322              		.loc 1 561 18
 2323 02f8 98339FE5 		ldr	r3, .L116+160
 2324 02fc 10300BE5 		str	r3, [fp, #-16]
 562:main.c        ****       task_idle();
 2325              		.loc 1 562 7
 2326 0300 94339FE5 		ldr	r3, .L116+164
 2327 0304 0FE0A0E1 		mov	lr, pc
 2328 0308 13FF2FE1 		bx	r3
 2329              	.LVL70:
 2330              	.L101:
 563:main.c        ****     }
 564:main.c        ****     // Max. Zeitdauer einer Zeitscheibe überschritten?
 565:main.c        ****     if ((int)(start_tick - systick_get_ms()) <= 0) {
 2331              		.loc 1 565 28
 2332 030c 3C339FE5 		ldr	r3, .L116+88
 2333 0310 0FE0A0E1 		mov	lr, pc
 2334 0314 13FF2FE1 		bx	r3
 2335              	.LVL71:
 2336 0318 0020A0E1 		mov	r2, r0
 2337              		.loc 1 565 26 discriminator 1
 2338 031c 08301BE5 		ldr	r3, [fp, #-8]
 2339 0320 023043E0 		sub	r3, r3, r2
 2340              		.loc 1 565 8 discriminator 1
 2341 0324 000053E3 		cmp	r3, #0
 2342 0328 2C0000CA 		bgt	.L102
 566:main.c        ****       main_data.term_status |= term_string(
 2343              		.loc 1 566 32
 2344 032c 0010A0E3 		mov	r1, #0
 2345 0330 68039FE5 		ldr	r0, .L116+168
 2346 0334 EC329FE5 		ldr	r3, .L116+48
 2347 0338 0FE0A0E1 		mov	lr, pc
 2348 033c 13FF2FE1 		bx	r3
 2349              	.LVL72:
 2350 0340 0030A0E1 		mov	r3, r0
 2351              		.loc 1 566 16 discriminator 1
 2352 0344 58239FE5 		ldr	r2, .L116+172
 2353 0348 D020D2E1 		ldrsb	r2, [r2]
 2354              		.loc 1 566 29 discriminator 1
 2355 034c 033CA0E1 		lsl	r3, r3, #24
 2356 0350 433CA0E1 		asr	r3, r3, #24
 2357 0354 033082E1 		orr	r3, r2, r3
 2358 0358 033CA0E1 		lsl	r3, r3, #24
 2359 035c 432CA0E1 		asr	r2, r3, #24
 2360 0360 3C339FE5 		ldr	r3, .L116+172
 2361 0364 0020C3E5 		strb	r2, [r3]
 567:main.c        ****           VT100_VORDERGRUND_ROT "Timing durch '", ASYNCSYNC_NONBLOCK);
 568:main.c        ****       main_data.term_status |= term_string(task_aktiv, ASYNCSYNC_NONBLOCK);
 2362              		.loc 1 568 32
 2363 0368 0010A0E3 		mov	r1, #0
 2364 036c 10001BE5 		ldr	r0, [fp, #-16]
 2365 0370 B0329FE5 		ldr	r3, .L116+48
 2366 0374 0FE0A0E1 		mov	lr, pc
 2367 0378 13FF2FE1 		bx	r3
 2368              	.LVL73:
 2369 037c 0030A0E1 		mov	r3, r0
 2370              		.loc 1 568 16 discriminator 1
 2371 0380 1C239FE5 		ldr	r2, .L116+172
 2372 0384 D020D2E1 		ldrsb	r2, [r2]
 2373              		.loc 1 568 29 discriminator 1
 2374 0388 033CA0E1 		lsl	r3, r3, #24
 2375 038c 433CA0E1 		asr	r3, r3, #24
 2376 0390 033082E1 		orr	r3, r2, r3
 2377 0394 033CA0E1 		lsl	r3, r3, #24
 2378 0398 432CA0E1 		asr	r2, r3, #24
 2379 039c 00339FE5 		ldr	r3, .L116+172
 2380 03a0 0020C3E5 		strb	r2, [r3]
 569:main.c        ****       main_data.term_status |= term_string(
 2381              		.loc 1 569 32
 2382 03a4 0010A0E3 		mov	r1, #0
 2383 03a8 F8029FE5 		ldr	r0, .L116+176
 2384 03ac 74329FE5 		ldr	r3, .L116+48
 2385 03b0 0FE0A0E1 		mov	lr, pc
 2386 03b4 13FF2FE1 		bx	r3
 2387              	.LVL74:
 2388 03b8 0030A0E1 		mov	r3, r0
 2389              		.loc 1 569 16 discriminator 1
 2390 03bc E0229FE5 		ldr	r2, .L116+172
 2391 03c0 D020D2E1 		ldrsb	r2, [r2]
 2392              		.loc 1 569 29 discriminator 1
 2393 03c4 033CA0E1 		lsl	r3, r3, #24
 2394 03c8 433CA0E1 		asr	r3, r3, #24
 2395 03cc 033082E1 		orr	r3, r2, r3
 2396 03d0 033CA0E1 		lsl	r3, r3, #24
 2397 03d4 432CA0E1 		asr	r2, r3, #24
 2398 03d8 C4329FE5 		ldr	r3, .L116+172
 2399 03dc 0020C3E5 		strb	r2, [r3]
 2400              	.L102:
 570:main.c        ****           "' verletzt\n\r" VT100_VORDERGRUND_DEFAULT, ASYNCSYNC_NONBLOCK);
 571:main.c        ****     }
 572:main.c        ****     // Zeitscheibe erhöhen
 573:main.c        ****     zeitscheibe++;
 2401              		.loc 1 573 16
 2402 03e0 0C301BE5 		ldr	r3, [fp, #-12]
 2403 03e4 013083E2 		add	r3, r3, #1
 2404 03e8 0C300BE5 		str	r3, [fp, #-12]
 2405              	.LBB10:
 2406              	.LBB11:
 123:lib/../main.h **** 
 124:lib/../main.h **** static __inline__ int32_t stack_check(void) __attribute__((always_inline));
 125:lib/../main.h **** static __inline__ int32_t stack_check(void)
 126:lib/../main.h **** {
 127:lib/../main.h **** 	         uint32_t *ptr;
 128:lib/../main.h **** //	register uint32_t *sp asm("r13");
 129:lib/../main.h **** 	for(ptr=&__stack_start__[0];*ptr==STACK_FILL;++ptr);
 2407              		.loc 4 129 9
 2408 03ec 54329FE5 		ldr	r3, .L116+80
 2409 03f0 18300BE5 		str	r3, [fp, #-24]
 2410              		.loc 4 129 2
 2411 03f4 020000EA 		b	.L103
 2412              	.L104:
 2413              		.loc 4 129 47 discriminator 3
 2414 03f8 18301BE5 		ldr	r3, [fp, #-24]
 2415 03fc 043083E2 		add	r3, r3, #4
 2416 0400 18300BE5 		str	r3, [fp, #-24]
 2417              	.L103:
 2418              		.loc 4 129 30 discriminator 1
 2419 0404 18301BE5 		ldr	r3, [fp, #-24]
 2420 0408 003093E5 		ldr	r3, [r3]
 2421              		.loc 4 129 34 discriminator 1
 2422 040c 38229FE5 		ldr	r2, .L116+84
 2423 0410 020053E1 		cmp	r3, r2
 2424 0414 F7FFFF0A 		beq	.L104
 130:lib/../main.h **** 	return (int32_t)(ptr-&__stack_start__[0]);
 2425              		.loc 4 130 22
 2426 0418 18301BE5 		ldr	r3, [fp, #-24]
 2427 041c 24229FE5 		ldr	r2, .L116+80
 2428 0420 023043E0 		sub	r3, r3, r2
 2429              		.loc 4 130 9
 2430 0424 4331A0E1 		asr	r3, r3, #2
 2431              	.LBE11:
 2432              	.LBE10:
 574:main.c        **** 
 575:main.c        ****     // Stack Testen
 576:main.c        ****     if (stack_check() < (1 * 4)) {
 2433              		.loc 1 576 8 discriminator 1
 2434 0428 030053E3 		cmp	r3, #3
 2435 042c 350000CA 		bgt	.L106
 2436              	.LBB12:
 577:main.c        ****       static uint8_t stack_cnt = 0;
 578:main.c        ****       if (stack_cnt == 0) {
 2437              		.loc 1 578 21
 2438 0430 74329FE5 		ldr	r3, .L116+180
 2439 0434 0030D3E5 		ldrb	r3, [r3]	@ zero_extendqisi2
 2440              		.loc 1 578 10
 2441 0438 000053E3 		cmp	r3, #0
 2442 043c 3100001A 		bne	.L106
 579:main.c        ****         stack_cnt = 1;
 2443              		.loc 1 579 19
 2444 0440 64329FE5 		ldr	r3, .L116+180
 2445 0444 0120A0E3 		mov	r2, #1
 2446 0448 0020C3E5 		strb	r2, [r3]
 580:main.c        ****         main_data.term_status |= term_string(
 2447              		.loc 1 580 34
 2448 044c 0010A0E3 		mov	r1, #0
 2449 0450 58029FE5 		ldr	r0, .L116+184
 2450 0454 CC319FE5 		ldr	r3, .L116+48
 2451 0458 0FE0A0E1 		mov	lr, pc
 2452 045c 13FF2FE1 		bx	r3
 2453              	.LVL75:
 2454 0460 0030A0E1 		mov	r3, r0
 2455              		.loc 1 580 18 discriminator 1
 2456 0464 38229FE5 		ldr	r2, .L116+172
 2457 0468 D020D2E1 		ldrsb	r2, [r2]
 2458              		.loc 1 580 31 discriminator 1
 2459 046c 033CA0E1 		lsl	r3, r3, #24
 2460 0470 433CA0E1 		asr	r3, r3, #24
 2461 0474 033082E1 		orr	r3, r2, r3
 2462 0478 033CA0E1 		lsl	r3, r3, #24
 2463 047c 432CA0E1 		asr	r2, r3, #24
 2464 0480 1C329FE5 		ldr	r3, .L116+172
 2465 0484 0020C3E5 		strb	r2, [r3]
 581:main.c        ****             VT100_VORDERGRUND_ROT "Stack overflow durch '", ASYNCSYNC_NONBLOCK);
 582:main.c        ****         main_data.term_status |= term_string(task_aktiv, ASYNCSYNC_NONBLOCK);
 2466              		.loc 1 582 34
 2467 0488 0010A0E3 		mov	r1, #0
 2468 048c 10001BE5 		ldr	r0, [fp, #-16]
 2469 0490 90319FE5 		ldr	r3, .L116+48
 2470 0494 0FE0A0E1 		mov	lr, pc
 2471 0498 13FF2FE1 		bx	r3
 2472              	.LVL76:
 2473 049c 0030A0E1 		mov	r3, r0
 2474              		.loc 1 582 18 discriminator 1
 2475 04a0 FC219FE5 		ldr	r2, .L116+172
 2476 04a4 D020D2E1 		ldrsb	r2, [r2]
 2477              		.loc 1 582 31 discriminator 1
 2478 04a8 033CA0E1 		lsl	r3, r3, #24
 2479 04ac 433CA0E1 		asr	r3, r3, #24
 2480 04b0 033082E1 		orr	r3, r2, r3
 2481 04b4 033CA0E1 		lsl	r3, r3, #24
 2482 04b8 432CA0E1 		asr	r2, r3, #24
 2483 04bc E0319FE5 		ldr	r3, .L116+172
 2484 04c0 0020C3E5 		strb	r2, [r3]
 583:main.c        ****         main_data.term_status |=
 584:main.c        ****             term_string("'\n\r" VT100_VORDERGRUND_DEFAULT, ASYNCSYNC_NONBLOCK);
 2485              		.loc 1 584 13
 2486 04c4 0010A0E3 		mov	r1, #0
 2487 04c8 E4019FE5 		ldr	r0, .L116+188
 2488 04cc 54319FE5 		ldr	r3, .L116+48
 2489 04d0 0FE0A0E1 		mov	lr, pc
 2490 04d4 13FF2FE1 		bx	r3
 2491              	.LVL77:
 2492 04d8 0030A0E1 		mov	r3, r0
 583:main.c        ****         main_data.term_status |=
 2493              		.loc 1 583 18
 2494 04dc C0219FE5 		ldr	r2, .L116+172
 2495 04e0 D020D2E1 		ldrsb	r2, [r2]
 583:main.c        ****         main_data.term_status |=
 2496              		.loc 1 583 31
 2497 04e4 033CA0E1 		lsl	r3, r3, #24
 2498 04e8 433CA0E1 		asr	r3, r3, #24
 2499 04ec 033082E1 		orr	r3, r2, r3
 2500 04f0 033CA0E1 		lsl	r3, r3, #24
 2501 04f4 432CA0E1 		asr	r2, r3, #24
 2502 04f8 A4319FE5 		ldr	r3, .L116+172
 2503 04fc 0020C3E5 		strb	r2, [r3]
 2504              	.L107:
 585:main.c        ****         while (1)
 2505              		.loc 1 585 15
 2506 0500 0000A0E1 		nop
 2507 0504 FDFFFFEA 		b	.L107
 2508              	.L106:
 2509              	.LBE12:
 586:main.c        ****           ;
 587:main.c        ****       }
 588:main.c        ****     }
 589:main.c        **** 
 590:main.c        ****     // Batteriespannung überprüfen
 591:main.c        ****     // Ggf. schlägt die Unterspannungsprüfung im Akku zuvor ein!
 592:main.c        ****     if (nxt_avr_get_battery_raw() < ((2 * 3000 /*mV*/) << 10) / 14180) {
 2510              		.loc 1 592 9
 2511 0508 A8319FE5 		ldr	r3, .L116+192
 2512 050c 0FE0A0E1 		mov	lr, pc
 2513 0510 13FF2FE1 		bx	r3
 2514              	.LVL78:
 2515 0514 0030A0E1 		mov	r3, r0
 2516              		.loc 1 592 8 discriminator 1
 2517 0518 1B0E53E3 		cmp	r3, #432
 2518 051c 1D00008A 		bhi	.L108
 593:main.c        ****       if (main_data.lowbat_cnt++ > 100)
 2519              		.loc 1 593 20
 2520 0520 7C319FE5 		ldr	r3, .L116+172
 2521 0524 0230D3E5 		ldrb	r3, [r3, #2]	@ zero_extendqisi2
 2522              		.loc 1 593 31
 2523 0528 012083E2 		add	r2, r3, #1
 2524 052c FF1002E2 		and	r1, r2, #255
 2525 0530 6C219FE5 		ldr	r2, .L116+172
 2526 0534 0210C2E5 		strb	r1, [r2, #2]
 2527              		.loc 1 593 10
 2528 0538 640053E3 		cmp	r3, #100
 2529 053c 0100009A 		bls	.L109
 2530              	.L110:
 594:main.c        ****         while (1)
 2531              		.loc 1 594 15
 2532 0540 0000A0E1 		nop
 2533 0544 FDFFFFEA 		b	.L110
 2534              	.L109:
 595:main.c        ****           ;
 596:main.c        ****       else if (main_data.lowbat_cnt == 10)
 2535              		.loc 1 596 25
 2536 0548 54319FE5 		ldr	r3, .L116+172
 2537 054c 0230D3E5 		ldrb	r3, [r3, #2]	@ zero_extendqisi2
 2538              		.loc 1 596 15
 2539 0550 0A0053E3 		cmp	r3, #10
 2540 0554 1200001A 		bne	.L111
 597:main.c        ****         main_data.term_status |=
 598:main.c        ****             term_string(VT100_VORDERGRUND_ROT
 2541              		.loc 1 598 13
 2542 0558 0010A0E3 		mov	r1, #0
 2543 055c 58019FE5 		ldr	r0, .L116+196
 2544 0560 C0309FE5 		ldr	r3, .L116+48
 2545 0564 0FE0A0E1 		mov	lr, pc
 2546 0568 13FF2FE1 		bx	r3
 2547              	.LVL79:
 2548 056c 0030A0E1 		mov	r3, r0
 597:main.c        ****         main_data.term_status |=
 2549              		.loc 1 597 18
 2550 0570 2C219FE5 		ldr	r2, .L116+172
 2551 0574 D020D2E1 		ldrsb	r2, [r2]
 597:main.c        ****         main_data.term_status |=
 2552              		.loc 1 597 31
 2553 0578 033CA0E1 		lsl	r3, r3, #24
 2554 057c 433CA0E1 		asr	r3, r3, #24
 2555 0580 033082E1 		orr	r3, r2, r3
 2556 0584 033CA0E1 		lsl	r3, r3, #24
 2557 0588 432CA0E1 		asr	r2, r3, #24
 2558 058c 10319FE5 		ldr	r3, .L116+172
 2559 0590 0020C3E5 		strb	r2, [r3]
 2560 0594 020000EA 		b	.L111
 2561              	.L108:
 599:main.c        ****                         "\n\rLow Battery\n\r" VT100_VORDERGRUND_DEFAULT,
 600:main.c        ****                         ASYNCSYNC_NONBLOCK);
 601:main.c        ****     } else {
 602:main.c        ****       main_data.lowbat_cnt = 0;
 2562              		.loc 1 602 28
 2563 0598 04319FE5 		ldr	r3, .L116+172
 2564 059c 0020A0E3 		mov	r2, #0
 2565 05a0 0220C3E5 		strb	r2, [r3, #2]
 2566              	.L111:
 603:main.c        ****     }
 604:main.c        **** 
 605:main.c        ****     // Termstatus ueberpruefen
 606:main.c        ****     if (main_data.term_cnt == 0 && main_data.term_status != 0) {
 2567              		.loc 1 606 18
 2568 05a4 F8309FE5 		ldr	r3, .L116+172
 2569 05a8 0130D3E5 		ldrb	r3, [r3, #1]	@ zero_extendqisi2
 2570              		.loc 1 606 8
 2571 05ac 000053E3 		cmp	r3, #0
 2572 05b0 EDFEFF1A 		bne	.L115
 2573              		.loc 1 606 45 discriminator 1
 2574 05b4 E8309FE5 		ldr	r3, .L116+172
 2575 05b8 D030D3E1 		ldrsb	r3, [r3]
 2576              		.loc 1 606 33 discriminator 1
 2577 05bc 000053E3 		cmp	r3, #0
 2578 05c0 E9FEFF0A 		beq	.L115
 607:main.c        ****       main_data.term_cnt++;
 2579              		.loc 1 607 16
 2580 05c4 D8309FE5 		ldr	r3, .L116+172
 2581 05c8 0130D3E5 		ldrb	r3, [r3, #1]	@ zero_extendqisi2
 2582              		.loc 1 607 25
 2583 05cc 013083E2 		add	r3, r3, #1
 2584 05d0 FF2003E2 		and	r2, r3, #255
 2585 05d4 C8309FE5 		ldr	r3, .L116+172
 2586 05d8 0120C3E5 		strb	r2, [r3, #1]
 2587              	.L113:
 608:main.c        ****     overflow:
 609:main.c        ****       __attribute__((unused));
 610:main.c        **** 
 611:main.c        ****       (void)term_string(VT100_VORDERGRUND_ROT
 2588              		.loc 1 611 13
 2589 05dc 0110A0E3 		mov	r1, #1
 2590 05e0 D8009FE5 		ldr	r0, .L116+200
 2591 05e4 3C309FE5 		ldr	r3, .L116+48
 2592 05e8 0FE0A0E1 		mov	lr, pc
 2593 05ec 13FF2FE1 		bx	r3
 2594              	.LVL80:
 2595              	.L114:
 612:main.c        ****                         "\n\rTerminal Overflow\n\r" VT100_VORDERGRUND_DEFAULT,
 613:main.c        ****                         ASYNCSYNC_BLOCK);
 614:main.c        ****       while (1)
 2596              		.loc 1 614 13
 2597 05f0 0000A0E1 		nop
 2598 05f4 FDFFFFEA 		b	.L114
 2599              	.L117:
 2600              		.align	2
 2601              	.L116:
 2602 05f8 00000000 		.word	aic_init
 2603 05fc 00000000 		.word	systick_init
 2604 0600 00000000 		.word	interrupts_enable
 2605 0604 00000000 		.word	nxt_avr_init
 2606 0608 00000000 		.word	udmon3_init
 2607 060c 00000000 		.word	term_init
 2608 0610 00000000 		.word	display_init
 2609 0614 00000000 		.word	display_clear
 2610 0618 50000000 		.word	.LC9
 2611 061c 00000000 		.word	display_string
 2612 0620 00000000 		.word	display_update
 2613 0624 60000000 		.word	.LC10
 2614 0628 00000000 		.word	term_string
 2615 062c 6C000000 		.word	.LC11
 2616 0630 9C000000 		.word	.LC12
 2617 0634 E0000000 		.word	.LC13
 2618 0638 14010000 		.word	.LC14
 2619 063c 40010000 		.word	.LC15
 2620 0640 40FDFFFF 		.word	-704
 2621 0644 FF8F0030 		.word	805343231
 2622 0648 00000000 		.word	__stack_start__
 2623 064c 11111111 		.word	286331153
 2624 0650 00000000 		.word	systick_get_ms
 2625 0654 50010000 		.word	.LC16
 2626 0658 54010000 		.word	.LC17
 2627 065c 00000000 		.word	task_8ms
 2628 0660 58010000 		.word	.LC18
 2629 0664 00000000 		.word	task_16ms
 2630 0668 60010000 		.word	.LC19
 2631 066c 00000000 		.word	task_32ms
 2632 0670 68010000 		.word	.LC20
 2633 0674 00000000 		.word	task_64ms
 2634 0678 70010000 		.word	.LC21
 2635 067c 00000000 		.word	task_128ms
 2636 0680 78010000 		.word	.LC22
 2637 0684 00000000 		.word	task_256ms
 2638 0688 80010000 		.word	.LC23
 2639 068c 00000000 		.word	task_512ms
 2640 0690 88010000 		.word	.LC24
 2641 0694 00000000 		.word	task_1024ms
 2642 0698 90010000 		.word	.LC25
 2643 069c 00000000 		.word	task_idle
 2644 06a0 98010000 		.word	.LC26
 2645 06a4 00000000 		.word	main_data
 2646 06a8 AC010000 		.word	.LC27
 2647 06ac E2040000 		.word	stack_cnt.0
 2648 06b0 C0010000 		.word	.LC28
 2649 06b4 DC010000 		.word	.LC29
 2650 06b8 00000000 		.word	nxt_avr_get_battery_raw
 2651 06bc E8010000 		.word	.LC30
 2652 06c0 04020000 		.word	.LC31
 2653              		.cfi_endproc
 2654              	.LFE28:
 2656              		.bss
 2657              		.align	2
 2658              	trace_index.4:
 2659 046c 00000000 		.space	4
 2661              	strpos.3:
 2662 0470 00       		.space	1
 2664 0471 000000   		.align	2
 2665              	string.2:
 2666 0474 00000000 		.space	100
 2666      00000000 
 2666      00000000 
 2666      00000000 
 2666      00000000 
 2668              		.align	2
 2669              	linebuf.1:
 2670 04d8 00000000 		.space	10
 2670      00000000 
 2670      0000
 2672              	stack_cnt.0:
 2673 04e2 00       		.space	1
 2675              		.text
 2676              	.Letext0:
 2677              		.file 5 "/usr/lib/gcc/arm-gnu-toolchain-14.3.rel1-x86_64-arm-none-eabi/arm-none-eabi/include/machi
 2678              		.file 6 "/usr/lib/gcc/arm-gnu-toolchain-14.3.rel1-x86_64-arm-none-eabi/arm-none-eabi/include/sys/_
 2679              		.file 7 "/usr/lib/gcc/arm-gnu-toolchain-14.3.rel1-x86_64-arm-none-eabi/lib/gcc/arm-none-eabi/14.3.
 2680              		.file 8 "/usr/lib/gcc/arm-gnu-toolchain-14.3.rel1-x86_64-arm-none-eabi/arm-none-eabi/include/sys/_
 2681              		.file 9 "/usr/lib/gcc/arm-gnu-toolchain-14.3.rel1-x86_64-arm-none-eabi/arm-none-eabi/include/sys/r
 2682              		.file 10 "/usr/lib/gcc/arm-gnu-toolchain-14.3.rel1-x86_64-arm-none-eabi/arm-none-eabi/include/sys/
 2683              		.file 11 "/usr/lib/gcc/arm-gnu-toolchain-14.3.rel1-x86_64-arm-none-eabi/arm-none-eabi/include/stdi
 2684              		.file 12 "AT91SAM7S64.h"
 2685              		.file 13 "lib/display.h"
 2686              		.file 14 "lib/term.h"
 2687              		.file 15 "trace32/udmon3.h"
 2688              		.file 16 "lib/nxt_avr.h"
 2689              		.file 17 "lib/isr.h"
 2690              		.file 18 "lib/systick.h"
 2691              		.file 19 "lib/aic.h"
 2692              		.file 20 "/usr/lib/gcc/arm-gnu-toolchain-14.3.rel1-x86_64-arm-none-eabi/arm-none-eabi/include/sys/